
target/x86_64-reenix/debug/reenix:     file format elf64-x86-64
target/x86_64-reenix/debug/reenix
architecture: i386:x86-64, flags 0x00000012:
EXEC_P, HAS_SYMS
start address 0x00000000c0101000

Program Header:
    LOAD off    0x0000000000000190 vaddr 0x0000000000100000 paddr 0x0000000000100000 align 2**3
         filesz 0x0000000000000018 memsz 0x0000000000000018 flags r--
    LOAD off    0x00000000000001a8 vaddr 0x00000000c0101000 paddr 0x0000000000101000 align 2**2
         filesz 0x00000000000000b8 memsz 0x00000000000000b8 flags r-x
    LOAD off    0x0000000000000260 vaddr 0x00000000c0102000 paddr 0x0000000000102000 align 2**0
         filesz 0x000000000000001a memsz 0x000000000000001a flags r--
    LOAD off    0x0000000000001000 vaddr 0x00000000c0103000 paddr 0x0000000000103000 align 2**12
         filesz 0x0000000000000000 memsz 0x0000000000004000 flags rw-
   STACK off    0x0000000000000000 vaddr 0x0000000000000000 paddr 0x0000000000000000 align 2**0
         filesz 0x0000000000000000 memsz 0x0000000000000000 flags rw-

Sections:
Idx Name          Size      VMA               LMA               File off  Algn
  0 .multiboot    00000018  0000000000100000  0000000000100000  00000190  2**3
                  CONTENTS, ALLOC, LOAD, READONLY, DATA
  1 .text         000000b8  00000000c0101000  0000000000101000  000001a8  2**2
                  CONTENTS, ALLOC, LOAD, READONLY, CODE
  2 .rodata       0000001a  00000000c0102000  0000000000102000  00000260  2**0
                  CONTENTS, ALLOC, LOAD, READONLY, DATA
  3 .data         00000000  00000000c0103000  00000000c0103000  0000027a  2**0
                  CONTENTS, ALLOC, LOAD, READONLY, DATA
  4 .bss          00004000  00000000c0103000  0000000000103000  00001000  2**12
                  ALLOC
  5 .debug_abbrev 00000186  0000000000000000  0000000000000000  00001000  2**0
                  CONTENTS, READONLY, DEBUGGING, OCTETS
  6 .debug_info   0000066b  0000000000000000  0000000000000000  00001186  2**0
                  CONTENTS, READONLY, DEBUGGING, OCTETS
  7 .debug_aranges 00000070  0000000000000000  0000000000000000  000017f1  2**0
                  CONTENTS, READONLY, DEBUGGING, OCTETS
  8 .debug_ranges 00000030  0000000000000000  0000000000000000  00001861  2**0
                  CONTENTS, READONLY, DEBUGGING, OCTETS
  9 .debug_str    000004c7  0000000000000000  0000000000000000  00001891  2**0
                  CONTENTS, READONLY, DEBUGGING, OCTETS
 10 .comment      00000048  0000000000000000  0000000000000000  00001d58  2**0
                  CONTENTS, READONLY
 11 .debug_frame  00000050  0000000000000000  0000000000000000  00001da0  2**3
                  CONTENTS, READONLY, DEBUGGING, OCTETS
 12 .debug_line   0000008f  0000000000000000  0000000000000000  00001df0  2**0
                  CONTENTS, READONLY, DEBUGGING, OCTETS
SYMBOL TABLE:
0000000000000000 l    df *ABS*	0000000000000000 7y45l0ql00lg52or22db1okfc
00000000c0000000 l       *ABS*	0000000000000000 KERNEL_OFFSET
0000000000001000 l       *ABS*	0000000000000000 KERNEL_STACK_SIZE
0000000000107000 l       .bss	0000000000000000 KERNEL_STACK_START_PA
00000000c0107000 l       .bss	0000000000000000 __kernel_stack_start
0000000000103000 l       .bss	0000000000000000 PML4_PA
00000000c0103000 l       .bss	0000000000000000 pml4
0000000000104000 l       .bss	0000000000000000 PDPT_PA
00000000c0104000 l       .bss	0000000000000000 pdpt
0000000000105000 l       .bss	0000000000000000 PDT_PA
00000000c0105000 l       .bss	0000000000000000 pdt
00000000c0106000 l       .bss	0000000000000000 __kernel_stack_end
00000000c0102000 l       .rodata	0000000000000000 gdt64
00000000c0102010 l       .rodata	0000000000000000 gdt64_pointer
00000000c0101023 l       .text	0000000000000000 setup_page_tables
00000000c0101064 l       .text	0000000000000000 enable_paging
00000000c01010b3 l       .text	0000000000000000 _start64
00000000c0101047 l       .text	0000000000000000 .map_pdt
00000000c010108f l       .text	0000000000000000 error
0000000000000000 l    df *ABS*	0000000000000000 e0b617p6pof1uag4o4lykuk0x
0000000000100000 g     O .multiboot	0000000000000018 MULTIBOOT2_HEADER
00000000c0101000 g       .text	0000000000000000 _start
0000000000100000 g       *ABS*	0000000000000000 KERNEL_PMA
00000000c0000000 g       *ABS*	0000000000000000 KERNEL_VMA
00000000c0100018 g       .multiboot	0000000000000000 __kernel_start
00000000c0100018 g       .multiboot	0000000000000000 __text_start
00000000c01010b8 g       .text	0000000000000000 __text_end
00000000c01010b8 g       .text	0000000000000000 __rodata_start
00000000c010201a g       .rodata	0000000000000000 __rodata_end
00000000c010201a g       .rodata	0000000000000000 __data_start
00000000c0103000 g       .data	0000000000000000 __data_end
00000000c0103000 g       .data	0000000000000000 __bss_start
00000000c0107000 g       .bss	0000000000000000 __bss_end
00000000c0107000 g       .bss	0000000000000000 __kernel_end



Disassembly of section .multiboot:

0000000000100000 <MULTIBOOT2_HEADER>:
  100000:	d6                   	(bad)  
  100001:	50                   	push   %eax
  100002:	52                   	push   %edx
  100003:	e8 00 00 00 00       	call   100008 <MULTIBOOT2_HEADER+0x8>
  100008:	18 00                	sbb    %al,(%eax)
  10000a:	00 00                	add    %al,(%eax)
  10000c:	12 af ad 17 00 00    	adc    0x17ad(%edi),%ch
  100012:	00 00                	add    %al,(%eax)
  100014:	08 00                	or     %al,(%eax)
	...

Disassembly of section .text:

00000000c0101000 <_start>:
    c0101000:	fa                   	cli    
    c0101001:	bc 00 70 10 00       	mov    $0x107000,%esp
    c0101006:	bd 00 70 10 00       	mov    $0x107000,%ebp
    c010100b:	e8 13 00 00 00       	call   c0101023 <setup_page_tables>
    c0101010:	e8 4f 00 00 00       	call   c0101064 <enable_paging>
    c0101015:	0f 01 15 10 20 10 c0 	lgdtl  0xc0102010
    c010101c:	ea b3 10 10 c0 08 00 	ljmp   $0x8,$0xc01010b3

00000000c0101023 <setup_page_tables>:
    c0101023:	b8 00 40 10 00       	mov    $0x104000,%eax
    c0101028:	83 c8 03             	or     $0x3,%eax
    c010102b:	a3 00 30 10 00       	mov    %eax,0x103000
    c0101030:	a3 18 30 10 00       	mov    %eax,0x103018
    c0101035:	b8 00 50 10 00       	mov    $0x105000,%eax
    c010103a:	83 c8 03             	or     $0x3,%eax
    c010103d:	a3 00 40 10 00       	mov    %eax,0x104000
    c0101042:	b9 00 00 00 00       	mov    $0x0,%ecx

00000000c0101047 <.map_pdt>:
    c0101047:	b8 00 00 20 00       	mov    $0x200000,%eax
    c010104c:	f7 e1                	mul    %ecx
    c010104e:	0d 83 00 00 00       	or     $0x83,%eax
    c0101053:	89 04 cd 00 50 10 00 	mov    %eax,0x105000(,%ecx,8)
    c010105a:	41                   	inc    %ecx
    c010105b:	81 f9 00 02 00 00    	cmp    $0x200,%ecx
    c0101061:	75 e4                	jne    c0101047 <.map_pdt>
    c0101063:	c3                   	ret    

00000000c0101064 <enable_paging>:
    c0101064:	b8 00 30 10 00       	mov    $0x103000,%eax
    c0101069:	0f 22 d8             	mov    %eax,%cr3
    c010106c:	0f 20 e0             	mov    %cr4,%eax
    c010106f:	83 c8 20             	or     $0x20,%eax
    c0101072:	0f 22 e0             	mov    %eax,%cr4
    c0101075:	b9 80 00 00 c0       	mov    $0xc0000080,%ecx
    c010107a:	0f 32                	rdmsr  
    c010107c:	0d 00 01 00 00       	or     $0x100,%eax
    c0101081:	0f 30                	wrmsr  
    c0101083:	0f 20 c0             	mov    %cr0,%eax
    c0101086:	0d 00 00 00 80       	or     $0x80000000,%eax
    c010108b:	0f 22 c0             	mov    %eax,%cr0
    c010108e:	c3                   	ret    

00000000c010108f <error>:
    c010108f:	c7 05 00 80 0b 00 45 	movl   $0x4f524f45,0xb8000
    c0101096:	4f 52 4f 
    c0101099:	c7 05 04 80 0b 00 52 	movl   $0x4f3a4f52,0xb8004
    c01010a0:	4f 3a 4f 
    c01010a3:	c7 05 08 80 0b 00 20 	movl   $0x4f204f20,0xb8008
    c01010aa:	4f 20 4f 
    c01010ad:	a2 0a 80 0b 00       	mov    %al,0xb800a
    c01010b2:	f4                   	hlt    

00000000c01010b3 <_start64>:
    c01010b3:	e8 d7 ff ff ff       	call   c010108f <error>

Disassembly of section .rodata:

00000000c0102000 <gdt64>:
	...
    c010200c:	00 98 20 00      	add    %bl,0xf0020(%eax)

00000000c0102010 <gdt64_pointer>:
    c0102010:	0f 00 00             	sldt   (%eax)
    c0102013:	20 10                	and    %dl,(%eax)
    c0102015:	c0 00 00             	rolb   $0x0,(%eax)
	...

Disassembly of section .bss:

00000000c0103000 <pml4>:
	...

00000000c0104000 <pdpt>:
	...

00000000c0105000 <pdt>:
	...

00000000c0106000 <__kernel_stack_end>:
	...

Disassembly of section .debug_abbrev:

0000000000000000 <.debug_abbrev>:
   0:	01 11                	add    %edx,(%ecx)
   2:	01 25 0e 13 05 03    	add    %esp,0x305130e
   8:	0e                   	push   %cs
   9:	10 17                	adc    %dl,(%edi)
   b:	1b 0e                	sbb    (%esi),%ecx
   d:	11 01                	adc    %eax,(%ecx)
   f:	55                   	push   %ebp
  10:	17                   	pop    %ss
  11:	00 00                	add    %al,(%eax)
  13:	02 39                	add    (%ecx),%bh
  15:	01 03                	add    %eax,(%ebx)
  17:	0e                   	push   %cs
  18:	00 00                	add    %al,(%eax)
  1a:	03 04 01             	add    (%ecx,%eax,1),%eax
  1d:	49                   	dec    %ecx
  1e:	13 6d 19             	adc    0x19(%ebp),%ebp
  21:	03 0e                	add    (%esi),%ecx
  23:	0b 0b                	or     (%ebx),%ecx
  25:	88 01                	mov    %al,(%ecx)
  27:	0f 00 00             	sldt   (%eax)
  2a:	04 28                	add    $0x28,%al
  2c:	00 03                	add    %al,(%ebx)
  2e:	0e                   	push   %cs
  2f:	1c 0f                	sbb    $0xf,%al
  31:	00 00                	add    %al,(%eax)
  33:	05 13 01 03 0e       	add    $0xe030113,%eax
  38:	0b 0b                	or     (%ebx),%ecx
  3a:	32 0b                	xor    (%ebx),%cl
  3c:	88 01                	mov    %al,(%ecx)
  3e:	0f 00 00             	sldt   (%eax)
  41:	06                   	push   %es
  42:	0d 00 03 0e 49       	or     $0x490e0300,%eax
  47:	13 88 01 0f 38 0b    	adc    0xb380f01(%eax),%ecx
  4d:	32 0b                	xor    (%ebx),%cl
  4f:	00 00                	add    %al,(%eax)
  51:	07                   	pop    %es
  52:	33 01                	xor    (%ecx),%eax
  54:	15 13 00 00 08       	adc    $0x8000013,%eax
  59:	0d 00 49 13 88       	or     $0x88134900,%eax
  5e:	01 0f                	add    %ecx,(%edi)
  60:	38 0b                	cmp    %cl,(%ebx)
  62:	34 19                	xor    $0x19,%al
  64:	00 00                	add    %al,(%eax)
  66:	09 19                	or     %ebx,(%ecx)
  68:	01 16                	add    %edx,(%esi)
  6a:	0b 00                	or     (%eax),%eax
  6c:	00 0a                	add    %cl,(%edx)
  6e:	0d 00 03 0e 49       	or     $0x490e0300,%eax
  73:	13 88 01 0f 38 0b    	adc    0xb380f01(%eax),%ecx
  79:	00 00                	add    %al,(%eax)
  7b:	0b 13                	or     (%ebx),%edx
  7d:	00 03                	add    %al,(%ebx)
  7f:	0e                   	push   %cs
  80:	0b 0b                	or     (%ebx),%ecx
  82:	32 0b                	xor    (%ebx),%cl
  84:	88 01                	mov    %al,(%ecx)
  86:	0f 00 00             	sldt   (%eax)
  89:	0c 19                	or     $0x19,%al
  8b:	01 00                	add    %eax,(%eax)
  8d:	00 0d 13 00 03 0e    	add    %cl,0xe030013
  93:	0b 0b                	or     (%ebx),%ecx
  95:	88 01                	mov    %al,(%ecx)
  97:	0f 00 00             	sldt   (%eax)
  9a:	0e                   	push   %cs
  9b:	2f                   	das    
  9c:	00 49 13             	add    %cl,0x13(%ecx)
  9f:	03 0e                	add    (%esi),%ecx
  a1:	00 00                	add    %al,(%eax)
  a3:	0f 24 00             	mov    %tr0,%eax
  a6:	03 0e                	add    (%esi),%ecx
  a8:	3e 0b 0b             	or     %ds:(%ebx),%ecx
  ab:	0b 00                	or     (%eax),%eax
  ad:	00 10                	add    %dl,(%eax)
  af:	2e 00 11             	add    %dl,%cs:(%ecx)
  b2:	01 12                	add    %edx,(%edx)
  b4:	06                   	push   %es
  b5:	40                   	inc    %eax
  b6:	18 03                	sbb    %al,(%ebx)
  b8:	0e                   	push   %cs
  b9:	3a 0b                	cmp    (%ebx),%cl
  bb:	3b 0b                	cmp    (%ebx),%ecx
  bd:	3f                   	aas    
  be:	19 00                	sbb    %eax,(%eax)
  c0:	00 11                	add    %dl,(%ecx)
  c2:	2e 01 11             	add    %edx,%cs:(%ecx)
  c5:	01 12                	add    %edx,(%edx)
  c7:	06                   	push   %es
  c8:	40                   	inc    %eax
  c9:	18 6e 0e             	sbb    %ch,0xe(%esi)
  cc:	03 0e                	add    (%esi),%ecx
  ce:	3a 0b                	cmp    (%ebx),%cl
  d0:	3b 0b                	cmp    (%ebx),%ecx
  d2:	87 01                	xchg   %eax,(%ecx)
  d4:	19 00                	sbb    %eax,(%eax)
  d6:	00 12                	add    %dl,(%edx)
  d8:	05 00 02 18 03       	add    $0x3180200,%eax
  dd:	0e                   	push   %cs
  de:	3a 0b                	cmp    (%ebx),%cl
  e0:	3b 0b                	cmp    (%ebx),%ecx
  e2:	49                   	dec    %ecx
  e3:	13 00                	adc    (%eax),%eax
  e5:	00 13                	add    %dl,(%ebx)
  e7:	0f 00 49 13          	str    0x13(%ecx)
  eb:	03 0e                	add    (%esi),%ecx
  ed:	33 06                	xor    (%esi),%eax
  ef:	00 00                	add    %al,(%eax)
  f1:	14 13                	adc    $0x13,%al
  f3:	01 03                	add    %eax,(%ebx)
  f5:	0e                   	push   %cs
  f6:	0b 0b                	or     (%ebx),%ecx
  f8:	88 01                	mov    %al,(%ecx)
  fa:	0f 00 00             	sldt   (%eax)
  fd:	15 0f 00 49 13       	adc    $0x1349000f,%eax
 102:	33 06                	xor    (%esi),%eax
 104:	00 00                	add    %al,(%eax)
 106:	16                   	push   %ss
 107:	15 01 49 13 00       	adc    $0x134901,%eax
 10c:	00 17                	add    %dl,(%edi)
 10e:	05 00 49 13 00       	add    $0x134900,%eax
 113:	00 18                	add    %bl,(%eax)
 115:	01 01                	add    %eax,(%ecx)
 117:	49                   	dec    %ecx
 118:	13 00                	adc    (%eax),%eax
 11a:	00 19                	add    %bl,(%ecx)
 11c:	21 00                	and    %eax,(%eax)
 11e:	49                   	dec    %ecx
 11f:	13 22                	adc    (%edx),%esp
 121:	0d 37 0b 00 00       	or     $0xb37,%eax
 126:	1a 24 00             	sbb    (%eax,%eax,1),%ah
 129:	03 0e                	add    (%esi),%ecx
 12b:	0b 0b                	or     (%ebx),%ecx
 12d:	3e 0b 00             	or     %ds:(%eax),%eax
 130:	00 00                	add    %al,(%eax)
 132:	01 11                	add    %edx,(%ecx)
 134:	01 25 0e 13 05 03    	add    %esp,0x305130e
 13a:	0e                   	push   %cs
 13b:	10 17                	adc    %dl,(%edi)
 13d:	1b 0e                	sbb    (%esi),%ecx
 13f:	00 00                	add    %al,(%eax)
 141:	02 39                	add    (%ecx),%bh
 143:	01 03                	add    %eax,(%ebx)
 145:	0e                   	push   %cs
 146:	00 00                	add    %al,(%eax)
 148:	03 34 00             	add    (%eax,%eax,1),%esi
 14b:	03 0e                	add    (%esi),%ecx
 14d:	49                   	dec    %ecx
 14e:	13 3f                	adc    (%edi),%edi
 150:	19 3a                	sbb    %edi,(%edx)
 152:	0b 3b                	or     (%ebx),%edi
 154:	0b 88 01 0f 02 18    	or     0x18020f01(%eax),%ecx
 15a:	00 00                	add    %al,(%eax)
 15c:	04 13                	add    $0x13,%al
 15e:	01 03                	add    %eax,(%ebx)
 160:	0e                   	push   %cs
 161:	0b 0b                	or     (%ebx),%ecx
 163:	32 0b                	xor    (%ebx),%cl
 165:	88 01                	mov    %al,(%ecx)
 167:	0f 00 00             	sldt   (%eax)
 16a:	05 0d 00 03 0e       	add    $0xe03000d,%eax
 16f:	49                   	dec    %ecx
 170:	13 88 01 0f 38 0b    	adc    0xb380f01(%eax),%ecx
 176:	32 0b                	xor    (%ebx),%cl
 178:	00 00                	add    %al,(%eax)
 17a:	06                   	push   %es
 17b:	24 00                	and    $0x0,%al
 17d:	03 0e                	add    (%esi),%ecx
 17f:	3e 0b 0b             	or     %ds:(%ebx),%ecx
 182:	0b 00                	or     (%eax),%eax
	...

Disassembly of section .debug_info:

0000000000000000 <.debug_info>:
   0:	a6                   	cmpsb  %es:(%edi),%ds:(%esi)
   1:	05 00 00 04 00       	add    $0x40000,%eax
   6:	00 00                	add    %al,(%eax)
   8:	00 00                	add    %al,(%eax)
   a:	08 01                	or     %al,(%ecx)
   c:	93                   	xchg   %eax,%ebx
   d:	01 00                	add    %eax,(%eax)
   f:	00 1c 00             	add    %bl,(%eax,%eax,1)
  12:	8c 02                	mov    %es,(%edx)
  14:	00 00                	add    %al,(%eax)
  16:	00 00                	add    %al,(%eax)
  18:	00 00                	add    %al,(%eax)
  1a:	fd                   	std    
  1b:	01 00                	add    %eax,(%eax)
	...
  29:	00 02                	add    %al,(%edx)
  2b:	40                   	inc    %eax
  2c:	01 00                	add    %eax,(%eax)
  2e:	00 02                	add    %al,(%edx)
  30:	38 04 00             	cmp    %al,(%eax,%eax,1)
  33:	00 02                	add    %al,(%edx)
  35:	5c                   	pop    %esp
  36:	02 00                	add    (%eax),%al
  38:	00 03                	add    %al,(%ebx)
  3a:	f9                   	stc    
  3b:	03 00                	add    (%eax),%eax
  3d:	00 00                	add    %al,(%eax)
  3f:	00 00                	add    %al,(%eax)
  41:	00 01                	add    %al,(%ecx)
  43:	01 04 1c             	add    %eax,(%esp,%ebx,1)
  46:	04 00                	add    $0x0,%al
  48:	00 00                	add    %al,(%eax)
  4a:	04 3c                	add    $0x3c,%al
  4c:	04 00                	add    $0x0,%al
  4e:	00 01                	add    %al,(%ecx)
  50:	04 de                	add    $0xde,%al
  52:	00 00                	add    %al,(%eax)
  54:	00 02                	add    %al,(%edx)
  56:	04 7d                	add    $0x7d,%al
  58:	04 00                	add    $0x0,%al
  5a:	00 03                	add    %al,(%ebx)
  5c:	00 05 50 02 00 00    	add    %al,0x250
  62:	38 01                	cmp    %al,(%ecx)
  64:	08 06                	or     %al,(%esi)
  66:	96                   	xchg   %eax,%esi
  67:	03 00                	add    (%eax),%eax
  69:	00 9e 04 00 00 08    	add    %bl,0x8000004(%esi)
  6f:	20 01                	and    %al,(%ecx)
  71:	06                   	push   %es
  72:	85 04 00             	test   %eax,(%eax,%eax,1)
  75:	00 d3                	add    %dl,%bl
  77:	04 00                	add    $0x0,%al
  79:	00 04 28             	add    %al,(%eax,%ebp,1)
  7c:	01 06                	add    %eax,(%esi)
  7e:	6d                   	insl   (%dx),%es:(%edi)
  7f:	04 00                	add    $0x0,%al
  81:	00 39                	add    %bh,(%ecx)
  83:	00 00                	add    %al,(%eax)
  85:	00 01                	add    %al,(%ecx)
  87:	30 01                	xor    %al,(%ecx)
  89:	06                   	push   %es
  8a:	f9                   	stc    
  8b:	03 00                	add    (%eax),%eax
  8d:	00 da                	add    %bl,%dl
  8f:	04 00                	add    $0x0,%al
  91:	00 04 2c             	add    %al,(%esp,%ebp,1)
  94:	01 06                	add    %eax,(%esi)
  96:	ac                   	lods   %ds:(%esi),%al
  97:	04 00                	add    $0x0,%al
  99:	00 ae 00 00 00 08    	add    %ch,0x8000000(%esi)
  9f:	00 01                	add    %al,(%ecx)
  a1:	06                   	push   %es
  a2:	63 03                	arpl   %ax,(%ebx)
  a4:	00 00                	add    %al,(%eax)
  a6:	ae                   	scas   %es:(%edi),%al
  a7:	00 00                	add    %al,(%eax)
  a9:	00 08                	add    %cl,(%eax)
  ab:	10 01                	adc    %al,(%ecx)
  ad:	00 05 00 03 00 00    	add    %al,0x300
  b3:	10 01                	adc    %al,(%ecx)
  b5:	08 07                	or     %al,(%edi)
  b7:	bb 00 00 00 08       	mov    $0x8000000,%ebx
  bc:	a5                   	movsl  %ds:(%esi),%es:(%edi)
  bd:	04 00                	add    $0x0,%al
  bf:	00 08                	add    %cl,(%eax)
  c1:	00 09                	add    %cl,(%ecx)
  c3:	00 0a                	add    %cl,(%edx)
  c5:	60                   	pusha  
  c6:	03 00                	add    (%eax),%eax
  c8:	00 ed                	add    %ch,%ch
  ca:	00 00                	add    %al,(%eax)
  cc:	00 08                	add    %cl,(%eax)
  ce:	00 00                	add    %al,(%eax)
  d0:	09 01                	or     %eax,(%ecx)
  d2:	0a b6 04 00 00 02    	or     0x2000004(%esi),%dh
  d8:	01 00                	add    %eax,(%eax)
  da:	00 08                	add    %cl,(%eax)
  dc:	00 00                	add    %al,(%eax)
  de:	09 02                	or     %eax,(%edx)
  e0:	0a 48 02             	or     0x2(%eax),%cl
  e3:	00 00                	add    %al,(%eax)
  e5:	17                   	pop    %ss
  e6:	01 00                	add    %eax,(%eax)
  e8:	00 08                	add    %cl,(%eax)
  ea:	00 00                	add    %al,(%eax)
  ec:	00 05 60 03 00 00    	add    %al,0x360
  f2:	10 01                	adc    %al,(%ecx)
  f4:	08 06                	or     %al,(%esi)
  f6:	b9 02 00 00 9e       	mov    $0x9e000002,%ecx
  fb:	04 00                	add    $0x0,%al
  fd:	00 08                	add    %cl,(%eax)
  ff:	08 01                	or     %al,(%ecx)
 101:	00 05 b6 04 00 00    	add    %al,0x4b6
 107:	10 01                	adc    %al,(%ecx)
 109:	08 06                	or     %al,(%esi)
 10b:	b9 02 00 00 9e       	mov    $0x9e000002,%ecx
 110:	04 00                	add    $0x0,%al
 112:	00 08                	add    %cl,(%eax)
 114:	08 01                	or     %al,(%ecx)
 116:	00 0b                	add    %cl,(%ebx)
 118:	48                   	dec    %eax
 119:	02 00                	add    (%eax),%al
 11b:	00 10                	add    %dl,(%eax)
 11d:	01 08                	add    %ecx,(%eax)
 11f:	00 05 24 04 00 00    	add    %al,0x424
 125:	10 01                	adc    %al,(%ecx)
 127:	08 06                	or     %al,(%esi)
 129:	06                   	push   %es
 12a:	03 00                	add    (%eax),%eax
 12c:	00 35 01 00 00 08    	add    %dh,0x8000001
 132:	00 03                	add    %al,(%ebx)
 134:	00 05 79 01 00 00    	add    %al,0x179
 13a:	10 03                	adc    %al,(%ebx)
 13c:	08 07                	or     %al,(%edi)
 13e:	42                   	inc    %edx
 13f:	01 00                	add    %eax,(%eax)
 141:	00 08                	add    %cl,(%eax)
 143:	a5                   	movsl  %ds:(%esi),%es:(%edi)
 144:	04 00                	add    $0x0,%al
 146:	00 08                	add    %cl,(%eax)
 148:	08 0c 0a             	or     %cl,(%edx,%ecx,1)
 14b:	50                   	push   %eax
 14c:	02 00                	add    (%eax),%al
 14e:	00 65 01             	add    %ah,0x1(%ebp)
 151:	00 00                	add    %al,(%eax)
 153:	08 00                	or     %al,(%eax)
 155:	00 09                	add    %cl,(%ecx)
 157:	00 0a                	add    %cl,(%edx)
 159:	00 03                	add    %al,(%ebx)
 15b:	00 00                	add    %al,(%eax)
 15d:	86 01                	xchg   %al,(%ecx)
 15f:	00 00                	add    %al,(%eax)
 161:	08 00                	or     %al,(%eax)
 163:	00 00                	add    %al,(%eax)
 165:	05 50 02 00 00       	add    $0x250,%eax
 16a:	10 03                	adc    %al,(%ebx)
 16c:	08 06                	or     %al,(%esi)
 16e:	4c                   	dec    %esp
 16f:	03 00                	add    (%eax),%eax
 171:	00 08                	add    %cl,(%eax)
 173:	05 00 00 08 00       	add    $0x80000,%eax
 178:	03 06                	add    (%esi),%eax
 17a:	20 01                	and    %al,(%ecx)
 17c:	00 00                	add    %al,(%eax)
 17e:	15 05 00 00 08       	adc    $0x8000005,%eax
 183:	08 03                	or     %al,(%ebx)
 185:	00 05 00 03 00 00    	add    %al,0x300
 18b:	10 03                	adc    %al,(%ebx)
 18d:	08 06                	or     %al,(%esi)
 18f:	b9 02 00 00 9e       	mov    $0x9e000002,%ecx
 194:	04 00                	add    $0x0,%al
 196:	00 08                	add    %cl,(%eax)
 198:	00 03                	add    %al,(%ebx)
 19a:	00 00                	add    %al,(%eax)
 19c:	02 bc 04 00 00 0d 51 	add    0x510d0000(%esp,%eax,1),%bh
 1a3:	01 00                	add    %eax,(%eax)
 1a5:	00 00                	add    %al,(%eax)
 1a7:	01 00                	add    %eax,(%eax)
 1a9:	00 05 49 04 00 00    	add    %al,0x449
 1af:	30 01                	xor    %al,(%ecx)
 1b1:	08 06                	or     %al,(%esi)
 1b3:	42                   	inc    %edx
 1b4:	04 00                	add    $0x0,%al
 1b6:	00 50 04             	add    %dl,0x4(%eax)
 1b9:	00 00                	add    %al,(%eax)
 1bb:	08 00                	or     %al,(%eax)
 1bd:	03 06                	add    (%esi),%eax
 1bf:	38 04 00             	cmp    %al,(%eax,%eax,1)
 1c2:	00 ae 02 00 00 08    	add    %ch,0x8000002(%esi)
 1c8:	20 03                	and    %al,(%ebx)
 1ca:	06                   	push   %es
 1cb:	0b 01                	or     (%ecx),%eax
 1cd:	00 00                	add    %al,(%eax)
 1cf:	e1 04                	loope  1d5 <KERNEL_STACK_SIZE-0xe2b>
 1d1:	00 00                	add    %al,(%eax)
 1d3:	08 10                	or     %dl,(%eax)
 1d5:	03 00                	add    (%eax),%eax
 1d7:	0b 9f 03 00 00 00    	or     0x3(%edi),%ebx
 1dd:	01 01                	add    %eax,(%ecx)
 1df:	05 6f 01 00 00       	add    $0x16f,%eax
 1e4:	40                   	inc    %eax
 1e5:	01 08                	add    %ecx,(%eax)
 1e7:	06                   	push   %es
 1e8:	f9                   	stc    
 1e9:	03 00                	add    (%eax),%eax
 1eb:	00 da                	add    %bl,%dl
 1ed:	04 00                	add    $0x0,%al
 1ef:	00 04 34             	add    %al,(%esp,%esi,1)
 1f2:	03 06                	add    (%esi),%eax
 1f4:	85 04 00             	test   %eax,(%eax,%eax,1)
 1f7:	00 d3                	add    %dl,%bl
 1f9:	04 00                	add    $0x0,%al
 1fb:	00 04 30             	add    %al,(%eax,%esi,1)
 1fe:	03 06                	add    (%esi),%eax
 200:	6d                   	insl   (%dx),%es:(%edi)
 201:	04 00                	add    $0x0,%al
 203:	00 39                	add    %bh,(%ecx)
 205:	00 00                	add    %al,(%eax)
 207:	00 01                	add    %al,(%ecx)
 209:	38 03                	cmp    %al,(%ebx)
 20b:	06                   	push   %es
 20c:	63 03                	arpl   %ax,(%ebx)
 20e:	00 00                	add    %al,(%eax)
 210:	0f 03 00             	lsl    (%eax),%eax
 213:	00 08                	add    %cl,(%eax)
 215:	00 03                	add    %al,(%ebx)
 217:	06                   	push   %es
 218:	ac                   	lods   %ds:(%esi),%al
 219:	04 00                	add    $0x0,%al
 21b:	00 0f                	add    %cl,(%edi)
 21d:	03 00                	add    (%eax),%eax
 21f:	00 08                	add    %cl,(%eax)
 221:	10 03                	adc    %al,(%ebx)
 223:	06                   	push   %es
 224:	58                   	pop    %eax
 225:	01 00                	add    %eax,(%eax)
 227:	00 46 05             	add    %al,0x5(%esi)
 22a:	00 00                	add    %al,(%eax)
 22c:	08 20                	or     %ah,(%eax)
 22e:	03 00                	add    (%eax),%eax
 230:	00 02                	add    %al,(%edx)
 232:	46                   	inc    %esi
 233:	03 00                	add    (%eax),%eax
 235:	00 02                	add    %al,(%edx)
 237:	23 02                	and    (%edx),%eax
 239:	00 00                	add    %al,(%eax)
 23b:	05 12 04 00 00       	add    $0x412,%eax
 240:	40                   	inc    %eax
 241:	01 08                	add    %ecx,(%eax)
 243:	06                   	push   %es
 244:	f1                   	int1   
 245:	02 00                	add    (%eax),%al
 247:	00 aa 01 00 00 08    	add    %ch,0x8000001(%edx)
 24d:	00 03                	add    %al,(%ebx)
 24f:	06                   	push   %es
 250:	1a 02                	sbb    (%edx),%al
 252:	00 00                	add    %al,(%eax)
 254:	95                   	xchg   %eax,%ebp
 255:	05 00 00 08 30       	add    $0x30080000,%eax
 25a:	03 06                	add    (%esi),%eax
 25c:	2d 04 00 00 a2       	sub    $0xa2000004,%eax
 261:	05 00 00 01 38       	add    $0x38010000,%eax
 266:	03 06                	add    (%esi),%eax
 268:	ff 03                	incl   (%ebx)
 26a:	00 00                	add    %al,(%eax)
 26c:	a2 05 00 00 01       	mov    %al,0x1000005
 271:	39 03                	cmp    %eax,(%ebx)
 273:	00 00                	add    %al,(%eax)
 275:	02 1a                	add    (%edx),%bl
 277:	02 00                	add    (%eax),%al
 279:	00 05 31 01 00 00    	add    %al,0x131
 27f:	18 01                	sbb    %al,(%ecx)
 281:	08 06                	or     %al,(%esi)
 283:	73 04                	jae    289 <KERNEL_STACK_SIZE-0xd77>
 285:	00 00                	add    %al,(%eax)
 287:	77 04                	ja     28d <KERNEL_STACK_SIZE-0xd73>
 289:	00 00                	add    %al,(%eax)
 28b:	08 00                	or     %al,(%eax)
 28d:	03 06                	add    (%esi),%eax
 28f:	80 03 00             	addb   $0x0,(%ebx)
 292:	00 da                	add    %bl,%dl
 294:	04 00                	add    $0x0,%al
 296:	00 04 10             	add    %al,(%eax,%edx,1)
 299:	03 06                	add    (%esi),%eax
 29b:	f5                   	cmc    
 29c:	03 00                	add    (%eax),%eax
 29e:	00 da                	add    %bl,%dl
 2a0:	04 00                	add    $0x0,%al
 2a2:	00 04 14             	add    %al,(%esp,%edx,1)
 2a5:	03 00                	add    (%eax),%eax
 2a7:	00 00                	add    %al,(%eax)
 2a9:	02 f9                	add    %cl,%bh
 2ab:	02 00                	add    (%eax),%al
 2ad:	00 05 e5 00 00 00    	add    %al,0xe5
 2b3:	10 01                	adc    %al,(%ecx)
 2b5:	08 07                	or     %al,(%edi)
 2b7:	bb 02 00 00 08       	mov    $0x8000002,%ebx
 2bc:	a5                   	movsl  %ds:(%esi),%es:(%edi)
 2bd:	04 00                	add    $0x0,%al
 2bf:	00 08                	add    %cl,(%eax)
 2c1:	00 09                	add    %cl,(%ecx)
 2c3:	00 0a                	add    %cl,(%edx)
 2c5:	77 03                	ja     2ca <KERNEL_STACK_SIZE-0xd36>
 2c7:	00 00                	add    %al,(%eax)
 2c9:	de 02                	fiadds (%edx)
 2cb:	00 00                	add    %al,(%eax)
 2cd:	08 00                	or     %al,(%eax)
 2cf:	00 0c 0a             	add    %cl,(%edx,%ecx,1)
 2d2:	2e 02 00             	add    %cs:(%eax),%al
 2d5:	00 f0                	add    %dh,%al
 2d7:	02 00                	add    (%eax),%al
 2d9:	00 08                	add    %cl,(%eax)
 2db:	00 00                	add    %al,(%eax)
 2dd:	00 05 77 03 00 00    	add    %al,0x377
 2e3:	10 01                	adc    %al,(%ecx)
 2e5:	08 0e                	or     %cl,(%esi)
 2e7:	ac                   	lods   %ds:(%esi),%al
 2e8:	04 00                	add    $0x0,%al
 2ea:	00 27                	add    %ah,(%edi)
 2ec:	00 00                	add    %al,(%eax)
 2ee:	00 00                	add    %al,(%eax)
 2f0:	05 2e 02 00 00       	add    $0x22e,%eax
 2f5:	10 01                	adc    %al,(%ecx)
 2f7:	08 0e                	or     %cl,(%esi)
 2f9:	ac                   	lods   %ds:(%esi),%al
 2fa:	04 00                	add    $0x0,%al
 2fc:	00 27                	add    %ah,(%edi)
 2fe:	00 00                	add    %al,(%eax)
 300:	00 06                	add    %al,(%esi)
 302:	b9 02 00 00 ac       	mov    $0xac000002,%ecx
 307:	04 00                	add    $0x0,%al
 309:	00 08                	add    %cl,(%eax)
 30b:	00 01                	add    %al,(%ecx)
 30d:	00 00                	add    %al,(%eax)
 30f:	05 ef 01 00 00       	add    $0x1ef,%eax
 314:	10 01                	adc    %al,(%ecx)
 316:	08 07                	or     %al,(%edi)
 318:	1c 03                	sbb    $0x3,%al
 31a:	00 00                	add    %al,(%eax)
 31c:	08 a5 04 00 00 08    	or     %ah,0x8000004(%ebp)
 322:	00 09                	add    %cl,(%ecx)
 324:	00 0a                	add    %cl,(%edx)
 326:	77 03                	ja     32b <KERNEL_STACK_SIZE-0xcd5>
 328:	00 00                	add    %al,(%eax)
 32a:	40                   	inc    %eax
 32b:	03 00                	add    (%eax),%eax
 32d:	00 08                	add    %cl,(%eax)
 32f:	00 00                	add    %al,(%eax)
 331:	09 01                	or     %eax,(%ecx)
 333:	0a 2e                	or     (%esi),%ch
 335:	02 00                	add    (%eax),%al
 337:	00 52 03             	add    %dl,0x3(%edx)
 33a:	00 00                	add    %al,(%eax)
 33c:	08 00                	or     %al,(%eax)
 33e:	00 00                	add    %al,(%eax)
 340:	05 77 03 00 00       	add    $0x377,%eax
 345:	10 01                	adc    %al,(%ecx)
 347:	08 0e                	or     %cl,(%esi)
 349:	9e                   	sahf   
 34a:	04 00                	add    $0x0,%al
 34c:	00 27                	add    %ah,(%edi)
 34e:	00 00                	add    %al,(%eax)
 350:	00 00                	add    %al,(%eax)
 352:	05 2e 02 00 00       	add    $0x22e,%eax
 357:	10 01                	adc    %al,(%ecx)
 359:	08 0e                	or     %cl,(%esi)
 35b:	9e                   	sahf   
 35c:	04 00                	add    $0x0,%al
 35e:	00 27                	add    %ah,(%edi)
 360:	00 00                	add    %al,(%eax)
 362:	00 06                	add    %al,(%esi)
 364:	b9 02 00 00 9e       	mov    $0x9e000002,%ecx
 369:	04 00                	add    $0x0,%al
 36b:	00 08                	add    %cl,(%eax)
 36d:	08 01                	or     %al,(%ecx)
 36f:	00 00                	add    %al,(%eax)
 371:	00 02                	add    %al,(%edx)
 373:	2a 01                	sub    (%ecx),%al
 375:	00 00                	add    %al,(%eax)
 377:	05 c4 03 00 00       	add    $0x3c4,%eax
 37c:	01 01                	add    %eax,(%ecx)
 37e:	01 07                	add    %eax,(%edi)
 380:	84 03                	test   %al,(%ebx)
 382:	00 00                	add    %al,(%eax)
 384:	08 f9                	or     %bh,%cl
 386:	03 00                	add    (%eax),%eax
 388:	00 01                	add    %al,(%ecx)
 38a:	00 09                	add    %cl,(%ecx)
 38c:	00 0a                	add    %cl,(%edx)
 38e:	21 04 00             	and    %eax,(%eax,%eax,1)
 391:	00 a8 03 00 00 01    	add    %ch,0x1000003(%eax)
 397:	00 00                	add    %al,(%eax)
 399:	09 01                	or     %eax,(%ecx)
 39b:	0a 7c 03 00          	or     0x0(%ebx,%eax,1),%bh
 39f:	00 cf                	add    %cl,%bh
 3a1:	03 00                	add    (%eax),%eax
 3a3:	00 01                	add    %al,(%ecx)
 3a5:	00 00                	add    %al,(%eax)
 3a7:	00 05 21 04 00 00    	add    %al,0x421
 3ad:	01 01                	add    %eax,(%ecx)
 3af:	01 0e                	add    %ecx,(%esi)
 3b1:	32 05 00 00 27 00    	xor    0x270000,%al
 3b7:	00 00                	add    %al,(%eax)
 3b9:	0e                   	push   %cs
 3ba:	d7                   	xlat   %ds:(%ebx)
 3bb:	01 00                	add    %eax,(%eax)
 3bd:	00 83 02 00 00 06    	add    %al,0x6000002(%ebx)
 3c3:	b9 02 00 00 32       	mov    $0x32000002,%ecx
 3c8:	05 00 00 01 01       	add    $0x1010000,%eax
 3cd:	01 00                	add    %eax,(%eax)
 3cf:	05 7c 03 00 00       	add    $0x37c,%eax
 3d4:	01 01                	add    %eax,(%ecx)
 3d6:	01 0e                	add    %ecx,(%esi)
 3d8:	32 05 00 00 27 00    	xor    0x270000,%al
 3de:	00 00                	add    %al,(%eax)
 3e0:	0e                   	push   %cs
 3e1:	d7                   	xlat   %ds:(%ebx)
 3e2:	01 00                	add    %eax,(%eax)
 3e4:	00 83 02 00 00 06    	add    %al,0x6000002(%ebx)
 3ea:	b9 02 00 00 d7       	mov    $0xd7000002,%ecx
 3ef:	01 00                	add    %eax,(%eax)
 3f1:	00 01                	add    %al,(%ecx)
 3f3:	01 01                	add    %eax,(%ecx)
 3f5:	00 00                	add    %al,(%eax)
 3f7:	00 00                	add    %al,(%eax)
 3f9:	0f 24 00             	mov    %tr0,%eax
 3fc:	00 00                	add    %al,(%eax)
 3fe:	07                   	pop    %es
 3ff:	01 02                	add    %eax,(%edx)
 401:	52                   	push   %edx
 402:	03 00                	add    (%eax),%eax
 404:	00 10                	add    %dl,(%eax)
	...
 40e:	01 00                	add    %eax,(%eax)
 410:	00 00                	add    %al,(%eax)
 412:	01 57 45             	add    %edx,0x45(%edi)
 415:	01 00                	add    %eax,(%eax)
 417:	00 01                	add    %al,(%ecx)
 419:	10 11                	adc    %dl,(%ecx)
	...
 423:	1d 00 00 00 01       	sbb    $0x1000000,%eax
 428:	57                   	push   %edi
 429:	05 02 00 00 69       	add    $0x69000002,%eax
 42e:	03 00                	add    (%eax),%eax
 430:	00 01                	add    %al,(%ecx)
 432:	13 12                	adc    (%edx),%edx
 434:	02 91 00 4b 01 00    	add    0x14b00(%ecx),%dl
 43a:	00 01                	add    %al,(%ecx)
 43c:	13 43 04             	adc    0x4(%ebx),%eax
 43f:	00 00                	add    %al,(%eax)
 441:	00 00                	add    %al,(%eax)
 443:	13 3b                	adc    (%ebx),%edi
 445:	02 00                	add    (%eax),%al
 447:	00 ba 00 00 00 00    	add    %bh,0x0(%edx)
 44d:	00 00                	add    %al,(%eax)
 44f:	00 14 a4             	add    %dl,(%esp,%eiz,4)
 452:	04 00                	add    $0x0,%al
 454:	00 10                	add    %dl,(%eax)
 456:	08 0a                	or     %cl,(%edx)
 458:	61                   	popa   
 459:	01 00                	add    %eax,(%eax)
 45b:	00 6e 04             	add    %ch,0x4(%esi)
 45e:	00 00                	add    %al,(%eax)
 460:	08 00                	or     %al,(%eax)
 462:	0a 59 03             	or     0x3(%ecx),%bl
 465:	00 00                	add    %al,(%eax)
 467:	9e                   	sahf   
 468:	04 00                	add    $0x0,%al
 46a:	00 08                	add    %cl,(%eax)
 46c:	08 00                	or     %al,(%eax)
 46e:	15 77 04 00 00       	adc    $0x477,%eax
 473:	00 00                	add    %al,(%eax)
 475:	00 00                	add    %al,(%eax)
 477:	14 6a                	adc    $0x6a,%al
 479:	01 00                	add    %eax,(%eax)
 47b:	00 10                	add    %dl,(%eax)
 47d:	08 0a                	or     %cl,(%edx)
 47f:	61                   	popa   
 480:	01 00                	add    %eax,(%eax)
 482:	00 95 04 00 00 08    	add    %dl,0x8000004(%ebp)
 488:	00 0a                	add    %cl,(%edx)
 48a:	59                   	pop    %ecx
 48b:	03 00                	add    (%eax),%eax
 48d:	00 9e 04 00 00 08    	add    %bl,0x8000004(%esi)
 493:	08 00                	or     %al,(%eax)
 495:	15 f9 03 00 00       	adc    $0x3f9,%eax
 49a:	00 00                	add    %al,(%eax)
 49c:	00 00                	add    %al,(%eax)
 49e:	0f 5f 02             	maxps  (%edx),%xmm0
 4a1:	00 00                	add    %al,(%eax)
 4a3:	07                   	pop    %es
 4a4:	08 0f                	or     %cl,(%edi)
 4a6:	92                   	xchg   %eax,%edx
 4a7:	03 00                	add    (%eax),%eax
 4a9:	00 07                	add    %al,(%edi)
 4ab:	08 14 65 02 00 00 10 	or     %dl,0x10000002(,%eiz,2)
 4b2:	08 0a                	or     %cl,(%edx)
 4b4:	61                   	popa   
 4b5:	01 00                	add    %eax,(%eax)
 4b7:	00 ca                	add    %cl,%dl
 4b9:	04 00                	add    $0x0,%al
 4bb:	00 08                	add    %cl,(%eax)
 4bd:	00 0a                	add    %cl,(%edx)
 4bf:	59                   	pop    %ecx
 4c0:	03 00                	add    (%eax),%eax
 4c2:	00 9e 04 00 00 08    	add    %bl,0x8000004(%esi)
 4c8:	08 00                	or     %al,(%eax)
 4ca:	15 5d 00 00 00       	adc    $0x5d,%eax
 4cf:	00 00                	add    %al,(%eax)
 4d1:	00 00                	add    %al,(%eax)
 4d3:	0f b4 02             	lfs    (%edx),%eax
 4d6:	00 00                	add    %al,(%eax)
 4d8:	10 04 0f             	adc    %al,(%edi,%ecx,1)
 4db:	8f 01                	pop    (%ecx)
 4dd:	00 00                	add    %al,(%eax)
 4df:	07                   	pop    %es
 4e0:	04 14                	add    $0x14,%al
 4e2:	a5                   	movsl  %ds:(%esi),%es:(%edi)
 4e3:	03 00                	add    (%eax),%eax
 4e5:	00 10                	add    %dl,(%eax)
 4e7:	08 0a                	or     %cl,(%edx)
 4e9:	61                   	popa   
 4ea:	01 00                	add    %eax,(%eax)
 4ec:	00 ff                	add    %bh,%bh
 4ee:	04 00                	add    $0x0,%al
 4f0:	00 08                	add    %cl,(%eax)
 4f2:	00 0a                	add    %cl,(%edx)
 4f4:	59                   	pop    %ecx
 4f5:	03 00                	add    (%eax),%eax
 4f7:	00 9e 04 00 00 08    	add    %bl,0x8000004(%esi)
 4fd:	08 00                	or     %al,(%eax)
 4ff:	15 20 01 00 00       	adc    $0x120,%eax
 504:	00 00                	add    %al,(%eax)
 506:	00 00                	add    %al,(%eax)
 508:	13 a1 01 00 00 bd    	adc    -0x42ffffff(%ecx),%esp
 50e:	02 00                	add    (%eax),%al
 510:	00 00                	add    %al,(%eax)
 512:	00 00                	add    %al,(%eax)
 514:	00 13                	add    %dl,(%ebx)
 516:	22 05 00 00 29 00    	and    0x290000,%al
 51c:	00 00                	add    %al,(%eax)
 51e:	00 00                	add    %al,(%eax)
 520:	00 00                	add    %al,(%eax)
 522:	16                   	push   %ss
 523:	77 03                	ja     528 <KERNEL_STACK_SIZE-0xad8>
 525:	00 00                	add    %al,(%eax)
 527:	17                   	pop    %ss
 528:	08 05 00 00 17 39    	or     %al,0x39170000
 52e:	05 00 00 00 0f       	add    $0xf000000,%eax
 533:	17                   	pop    %ss
 534:	02 00                	add    (%eax),%al
 536:	00 07                	add    %al,(%edi)
 538:	00 13                	add    %dl,(%ebx)
 53a:	df 01                	filds  (%ecx)
 53c:	00 00                	add    %al,(%eax)
 53e:	8a 04 00             	mov    (%eax,%eax,1),%al
 541:	00 00                	add    %al,(%eax)
 543:	00 00                	add    %al,(%eax)
 545:	00 14 0a             	add    %dl,(%edx,%ecx,1)
 548:	00 00                	add    %al,(%eax)
 54a:	00 10                	add    %dl,(%eax)
 54c:	08 0a                	or     %cl,(%edx)
 54e:	d4 01                	aam    $0x1
 550:	00 00                	add    %al,(%eax)
 552:	64 05 00 00 08 00    	fs add $0x80000,%eax
 558:	0a 85 02 00 00 74    	or     0x74000002(%ebp),%al
 55e:	05 00 00 08 08       	add    $0x8080000,%eax
 563:	00 15 6d 05 00 00    	add    %dl,0x56d
 569:	00 00                	add    %al,(%eax)
 56b:	00 00                	add    %al,(%eax)
 56d:	0d 09 03 00 00       	or     $0x309,%eax
 572:	00 01                	add    %al,(%ecx)
 574:	13 81 05 00 00 33    	adc    0x33000005(%ecx),%eax
 57a:	02 00                	add    (%eax),%al
 57c:	00 00                	add    %al,(%eax)
 57e:	00 00                	add    %al,(%eax)
 580:	00 18                	add    %bl,(%eax)
 582:	9e                   	sahf   
 583:	04 00                	add    $0x0,%al
 585:	00 19                	add    %bl,(%ecx)
 587:	8e 05 00 00 00 06    	mov    0x6000000,%es
 58d:	00 1a                	add    %bl,(%edx)
 58f:	e1 03                	loope  594 <KERNEL_STACK_SIZE-0xa6c>
 591:	00 00                	add    %al,(%eax)
 593:	08 07                	or     %al,(%edi)
 595:	13 7a 02             	adc    0x2(%edx),%edi
 598:	00 00                	add    %al,(%eax)
 59a:	99                   	cltd   
 59b:	00 00                	add    %al,(%eax)
 59d:	00 00                	add    %al,(%eax)
 59f:	00 00                	add    %al,(%eax)
 5a1:	00 0f                	add    %cl,(%edi)
 5a3:	5c                   	pop    %esp
 5a4:	01 00                	add    %eax,(%eax)
 5a6:	00 02                	add    %al,(%edx)
 5a8:	01 00                	add    %eax,(%eax)
 5aa:	bd 00 00 00 04       	mov    $0x4000000,%ebp
 5af:	00 32                	add    %dh,(%edx)
 5b1:	01 00                	add    %eax,(%eax)
 5b3:	00 08                	add    %cl,(%eax)
 5b5:	01 93 01 00 00 1c    	add    %edx,0x1c000001(%ebx)
 5bb:	00 1e                	add    %bl,(%esi)
 5bd:	03 00                	add    (%eax),%eax
 5bf:	00 5e 00             	add    %bl,0x0(%esi)
 5c2:	00 00                	add    %al,(%eax)
 5c4:	fd                   	std    
 5c5:	01 00                	add    %eax,(%eax)
 5c7:	00 02                	add    %al,(%edx)
 5c9:	52                   	push   %edx
 5ca:	03 00                	add    (%eax),%eax
 5cc:	00 02                	add    %al,(%edx)
 5ce:	dc 01                	faddl  (%ecx)
 5d0:	00 00                	add    %al,(%eax)
 5d2:	03 53 04             	add    0x4(%ebx),%edx
 5d5:	00 00                	add    %al,(%eax)
 5d7:	3e 00 00             	add    %al,%ds:(%eax)
 5da:	00 01                	add    %al,(%ecx)
 5dc:	19 08                	sbb    %ecx,(%eax)
 5de:	09 03                	or     %eax,(%ebx)
 5e0:	00 00                	add    %al,(%eax)
 5e2:	10 00                	adc    %al,(%eax)
 5e4:	00 00                	add    %al,(%eax)
 5e6:	00 00                	add    %al,(%eax)
 5e8:	04 e0                	add    $0xe0,%al
 5ea:	02 00                	add    (%eax),%al
 5ec:	00 18                	add    %bl,(%eax)
 5ee:	01 08                	add    %ecx,(%eax)
 5f0:	05 3a 01 00 00       	add    $0x13a,%eax
 5f5:	b2 00                	mov    $0x0,%dl
 5f7:	00 00                	add    %al,(%eax)
 5f9:	04 00                	add    $0x0,%al
 5fb:	03 05 85 03 00 00    	add    0x385,%eax
 601:	b2 00                	mov    $0x0,%dl
 603:	00 00                	add    %al,(%eax)
 605:	04 04                	add    $0x4,%al
 607:	03 05 e1 01 00 00    	add    0x1e1,%eax
 60d:	b2 00                	mov    $0x0,%dl
 60f:	00 00                	add    %al,(%eax)
 611:	04 08                	add    $0x8,%al
 613:	03 05 3f 02 00 00    	add    0x23f,%eax
 619:	b2 00                	mov    $0x0,%dl
 61b:	00 00                	add    %al,(%eax)
 61d:	04 0c                	add    $0xc,%al
 61f:	03 05 65 04 00 00    	add    0x465,%eax
 625:	83 00 00             	addl   $0x0,(%eax)
 628:	00 08                	add    %cl,(%eax)
 62a:	10 03                	adc    %al,(%ebx)
 62c:	00 04 10             	add    %al,(%eax,%edx,1)
 62f:	01 00                	add    %eax,(%eax)
 631:	00 08                	add    %cl,(%eax)
 633:	03 08                	add    (%eax),%ecx
 635:	05 86 01 00 00       	add    $0x186,%eax
 63a:	b9 00 00 00 02       	mov    $0x2000000,%ecx
 63f:	00 03                	add    %al,(%ebx)
 641:	05 f9 03 00 00       	add    $0x3f9,%eax
 646:	b9 00 00 00 02       	mov    $0x2000000,%ecx
 64b:	02 03                	add    (%ebx),%al
 64d:	05 78 04 00 00       	add    $0x478,%eax
 652:	b2 00                	mov    $0x0,%dl
 654:	00 00                	add    %al,(%eax)
 656:	04 04                	add    $0x4,%al
 658:	03 00                	add    (%eax),%eax
 65a:	00 00                	add    %al,(%eax)
 65c:	06                   	push   %es
 65d:	8f 01                	pop    (%ecx)
 65f:	00 00                	add    %al,(%eax)
 661:	07                   	pop    %es
 662:	04 06                	add    $0x6,%al
 664:	c0 03 00             	rolb   $0x0,(%ebx)
 667:	00 07                	add    %al,(%edi)
 669:	02 00                	add    (%eax),%al

Disassembly of section .debug_aranges:

0000000000000000 <.debug_aranges>:
   0:	3c 00                	cmp    $0x0,%al
   2:	00 00                	add    %al,(%eax)
   4:	02 00                	add    (%eax),%al
   6:	00 00                	add    %al,(%eax)
   8:	00 00                	add    %al,(%eax)
   a:	08 00                	or     %al,(%eax)
   c:	ff                   	(bad)  
   d:	ff                   	(bad)  
   e:	ff                   	(bad)  
   f:	ff 00                	incl   (%eax)
  11:	00 00                	add    %al,(%eax)
  13:	00 00                	add    %al,(%eax)
  15:	00 00                	add    %al,(%eax)
  17:	00 01                	add    %al,(%ecx)
	...
  25:	00 00                	add    %al,(%eax)
  27:	00 1d 00 00 00 00    	add    %bl,0x0
	...
  3d:	00 00                	add    %al,(%eax)
  3f:	00 2c 00             	add    %ch,(%eax,%eax,1)
  42:	00 00                	add    %al,(%eax)
  44:	02 00                	add    (%eax),%al
  46:	aa                   	stos   %al,%es:(%edi)
  47:	05 00 00 08 00       	add    $0x80000,%eax
  4c:	ff                   	(bad)  
  4d:	ff                   	(bad)  
  4e:	ff                   	(bad)  
  4f:	ff 00                	incl   (%eax)
  51:	00 10                	add    %dl,(%eax)
  53:	00 00                	add    %al,(%eax)
  55:	00 00                	add    %al,(%eax)
  57:	00 18                	add    %bl,(%eax)
	...

Disassembly of section .debug_ranges:

0000000000000000 <.debug_ranges>:
   0:	01 00                	add    %eax,(%eax)
   2:	00 00                	add    %al,(%eax)
   4:	00 00                	add    %al,(%eax)
   6:	00 00                	add    %al,(%eax)
   8:	01 00                	add    %eax,(%eax)
   a:	00 00                	add    %al,(%eax)
   c:	00 00                	add    %al,(%eax)
   e:	00 00                	add    %al,(%eax)
  10:	01 00                	add    %eax,(%eax)
  12:	00 00                	add    %al,(%eax)
  14:	00 00                	add    %al,(%eax)
  16:	00 00                	add    %al,(%eax)
  18:	01 00                	add    %eax,(%eax)
	...

Disassembly of section .debug_str:

0000000000000000 <.debug_str>:
   0:	41                   	inc    %ecx
   1:	6c                   	insb   (%dx),%es:(%edi)
   2:	69 67 6e 6d 65 6e 74 	imul   $0x746e656d,0x6e(%edi),%esp
   9:	00 26                	add    %ah,(%esi)
   b:	6d                   	insl   (%dx),%es:(%edi)
   c:	75 74                	jne    82 <KERNEL_STACK_SIZE-0xf7e>
   e:	20 64 79 6e          	and    %ah,0x6e(%ecx,%edi,2)
  12:	20 63 6f             	and    %ah,0x6f(%ebx)
  15:	72 65                	jb     7c <KERNEL_STACK_SIZE-0xf84>
  17:	3a 3a                	cmp    (%edx),%bh
  19:	66 6d                	insw   (%dx),%es:(%edi)
  1b:	74 3a                	je     57 <KERNEL_STACK_SIZE-0xfa9>
  1d:	3a 57 72             	cmp    0x72(%edi),%dl
  20:	69 74 65 00 75 38 00 	imul   $0x54003875,0x0(%ebp,%eiz,2),%esi
  27:	54 
  28:	00 66 6e             	add    %ah,0x6e(%esi)
  2b:	28 26                	sub    %ah,(%esi)
  2d:	63 6f 72             	arpl   %bp,0x72(%edi)
  30:	65 3a 3a             	cmp    %gs:(%edx),%bh
  33:	66 6d                	insw   (%dx),%es:(%edi)
  35:	74 3a                	je     71 <KERNEL_STACK_SIZE-0xf8f>
  37:	3a 72 74             	cmp    0x74(%edx),%dh
  3a:	3a 3a                	cmp    (%edx),%bh
  3c:	7b 65                	jnp    a3 <KERNEL_STACK_SIZE-0xf5d>
  3e:	78 74                	js     b4 <KERNEL_STACK_SIZE-0xf4c>
  40:	65 72 6e             	gs jb  b1 <KERNEL_STACK_SIZE-0xf4f>
  43:	23 30                	and    (%eax),%esi
  45:	7d 3a                	jge    81 <KERNEL_STACK_SIZE-0xf7f>
  47:	3a 4f 70             	cmp    0x70(%edi),%cl
  4a:	61                   	popa   
  4b:	71 75                	jno    c2 <KERNEL_STACK_SIZE-0xf3e>
  4d:	65 2c 20             	gs sub $0x20,%al
  50:	26 6d                	es insl (%dx),%es:(%edi)
  52:	75 74                	jne    c8 <KERNEL_STACK_SIZE-0xf38>
  54:	20 63 6f             	and    %ah,0x6f(%ebx)
  57:	72 65                	jb     be <KERNEL_STACK_SIZE-0xf42>
  59:	3a 3a                	cmp    (%edx),%bh
  5b:	66 6d                	insw   (%dx),%es:(%edi)
  5d:	74 3a                	je     99 <KERNEL_STACK_SIZE-0xf67>
  5f:	3a 46 6f             	cmp    0x6f(%esi),%al
  62:	72 6d                	jb     d1 <KERNEL_STACK_SIZE-0xf2f>
  64:	61                   	popa   
  65:	74 74                	je     db <KERNEL_STACK_SIZE-0xf25>
  67:	65 72 29             	gs jb  93 <KERNEL_STACK_SIZE-0xf6d>
  6a:	20 2d 3e 20 63 6f    	and    %ch,0x6f63203e
  70:	72 65                	jb     d7 <KERNEL_STACK_SIZE-0xf29>
  72:	3a 3a                	cmp    (%edx),%bh
  74:	72 65                	jb     db <KERNEL_STACK_SIZE-0xf25>
  76:	73 75                	jae    ed <KERNEL_STACK_SIZE-0xf13>
  78:	6c                   	insb   (%dx),%es:(%edi)
  79:	74 3a                	je     b5 <KERNEL_STACK_SIZE-0xf4b>
  7b:	3a 52 65             	cmp    0x65(%edx),%dl
  7e:	73 75                	jae    f5 <KERNEL_STACK_SIZE-0xf0b>
  80:	6c                   	insb   (%dx),%es:(%edi)
  81:	74 3c                	je     bf <KERNEL_STACK_SIZE-0xf41>
  83:	28 29                	sub    %ch,(%ecx)
  85:	2c 20                	sub    $0x20,%al
  87:	63 6f 72             	arpl   %bp,0x72(%edi)
  8a:	65 3a 3a             	cmp    %gs:(%edx),%bh
  8d:	66 6d                	insw   (%dx),%es:(%edi)
  8f:	74 3a                	je     cb <KERNEL_STACK_SIZE-0xf35>
  91:	3a 45 72             	cmp    0x72(%ebp),%al
  94:	72 6f                	jb     105 <KERNEL_STACK_SIZE-0xefb>
  96:	72 3e                	jb     d6 <KERNEL_STACK_SIZE-0xf2a>
  98:	00 26                	add    %ah,(%esi)
  9a:	63 6f 72             	arpl   %bp,0x72(%edi)
  9d:	65 3a 3a             	cmp    %gs:(%edx),%bh
  a0:	70 61                	jo     103 <KERNEL_STACK_SIZE-0xefd>
  a2:	6e                   	outsb  %ds:(%esi),(%dx)
  a3:	69 63 3a 3a 6c 6f 63 	imul   $0x636f6c3a,0x3a(%ebx),%esp
  aa:	61                   	popa   
  ab:	74 69                	je     116 <KERNEL_STACK_SIZE-0xeea>
  ad:	6f                   	outsl  %ds:(%esi),(%dx)
  ae:	6e                   	outsb  %ds:(%esi),(%dx)
  af:	3a 3a                	cmp    (%edx),%bh
  b1:	4c                   	dec    %esp
  b2:	6f                   	outsl  %ds:(%esi),(%dx)
  b3:	63 61 74             	arpl   %sp,0x74(%ecx)
  b6:	69 6f 6e 00 26 63 6f 	imul   $0x6f632600,0x6e(%edi),%ebp
  bd:	72 65                	jb     124 <KERNEL_STACK_SIZE-0xedc>
  bf:	3a 3a                	cmp    (%edx),%bh
  c1:	70 61                	jo     124 <KERNEL_STACK_SIZE-0xedc>
  c3:	6e                   	outsb  %ds:(%esi),(%dx)
  c4:	69 63 3a 3a 70 61 6e 	imul   $0x6e61703a,0x3a(%ebx),%esp
  cb:	69 63 5f 69 6e 66 6f 	imul   $0x6f666e69,0x5f(%ebx),%esp
  d2:	3a 3a                	cmp    (%edx),%bh
  d4:	50                   	push   %eax
  d5:	61                   	popa   
  d6:	6e                   	outsb  %ds:(%esi),(%dx)
  d7:	69 63 49 6e 66 6f 00 	imul   $0x6f666e,0x49(%ebx),%esp
  de:	43                   	inc    %ebx
  df:	65 6e                	outsb  %gs:(%esi),(%dx)
  e1:	74 65                	je     148 <KERNEL_STACK_SIZE-0xeb8>
  e3:	72 00                	jb     e5 <KERNEL_STACK_SIZE-0xf1b>
  e5:	4f                   	dec    %edi
  e6:	70 74                	jo     15c <KERNEL_STACK_SIZE-0xea4>
  e8:	69 6f 6e 3c 26 5b 63 	imul   $0x635b263c,0x6e(%edi),%ebp
  ef:	6f                   	outsl  %ds:(%esi),(%dx)
  f0:	72 65                	jb     157 <KERNEL_STACK_SIZE-0xea9>
  f2:	3a 3a                	cmp    (%edx),%bh
  f4:	66 6d                	insw   (%dx),%es:(%edi)
  f6:	74 3a                	je     132 <KERNEL_STACK_SIZE-0xece>
  f8:	3a 72 74             	cmp    0x74(%edx),%dh
  fb:	3a 3a                	cmp    (%edx),%bh
  fd:	50                   	push   %eax
  fe:	6c                   	insb   (%dx),%es:(%edi)
  ff:	61                   	popa   
 100:	63 65 68             	arpl   %sp,0x68(%ebp)
 103:	6f                   	outsl  %ds:(%esi),(%dx)
 104:	6c                   	insb   (%dx),%es:(%edi)
 105:	64 65 72 5d          	fs gs jb 166 <KERNEL_STACK_SIZE-0xe9a>
 109:	3e 00 61 72          	add    %ah,%ds:0x72(%ecx)
 10d:	67 73 00             	addr16 jae 110 <KERNEL_STACK_SIZE-0xef0>
 110:	4d                   	dec    %ebp
 111:	75 6c                	jne    17f <KERNEL_STACK_SIZE-0xe81>
 113:	74 69                	je     17e <KERNEL_STACK_SIZE-0xe82>
 115:	62 6f 6f             	bound  %ebp,0x6f(%edi)
 118:	74 45                	je     15f <KERNEL_STACK_SIZE-0xea1>
 11a:	6e                   	outsb  %ds:(%esi),(%dx)
 11b:	64 54                	fs push %esp
 11d:	61                   	popa   
 11e:	67 00 66 6f          	add    %ah,0x6f(%bp)
 122:	72 6d                	jb     191 <KERNEL_STACK_SIZE-0xe6f>
 124:	61                   	popa   
 125:	74 74                	je     19b <KERNEL_STACK_SIZE-0xe65>
 127:	65 72 00             	gs jb  12a <KERNEL_STACK_SIZE-0xed6>
 12a:	72 65                	jb     191 <KERNEL_STACK_SIZE-0xe6f>
 12c:	73 75                	jae    1a3 <KERNEL_STACK_SIZE-0xe5d>
 12e:	6c                   	insb   (%dx),%es:(%edi)
 12f:	74 00                	je     131 <KERNEL_STACK_SIZE-0xecf>
 131:	4c                   	dec    %esp
 132:	6f                   	outsl  %ds:(%esi),(%dx)
 133:	63 61 74             	arpl   %sp,0x74(%ecx)
 136:	69 6f 6e 00 6d 61 67 	imul   $0x67616d00,0x6e(%edi),%ebp
 13d:	69 63 00 63 6f 72 65 	imul   $0x65726f63,0x0(%ebx),%esp
 144:	00 6b 6d             	add    %ch,0x6d(%ebx)
 147:	61                   	popa   
 148:	69 6e 00 5f 69 6e 66 	imul   $0x666e695f,0x0(%esi),%ebp
 14f:	6f                   	outsl  %ds:(%esi),(%dx)
 150:	00 4f 70             	add    %cl,0x70(%edi)
 153:	61                   	popa   
 154:	71 75                	jno    1cb <KERNEL_STACK_SIZE-0xe35>
 156:	65 00 62 75          	add    %ah,%gs:0x75(%edx)
 15a:	66 00 62 6f          	data16 add %ah,0x6f(%edx)
 15e:	6f                   	outsl  %ds:(%esi),(%dx)
 15f:	6c                   	insb   (%dx),%es:(%edi)
 160:	00 64 61 74          	add    %ah,0x74(%ecx,%eiz,2)
 164:	61                   	popa   
 165:	5f                   	pop    %edi
 166:	70 74                	jo     1dc <KERNEL_STACK_SIZE-0xe24>
 168:	72 00                	jb     16a <KERNEL_STACK_SIZE-0xe96>
 16a:	26 73 74             	es jae 1e1 <KERNEL_STACK_SIZE-0xe1f>
 16d:	72 00                	jb     16f <KERNEL_STACK_SIZE-0xe91>
 16f:	46                   	inc    %esi
 170:	6f                   	outsl  %ds:(%esi),(%dx)
 171:	72 6d                	jb     1e0 <KERNEL_STACK_SIZE-0xe20>
 173:	61                   	popa   
 174:	74 74                	je     1ea <KERNEL_STACK_SIZE-0xe16>
 176:	65 72 00             	gs jb  179 <KERNEL_STACK_SIZE-0xe87>
 179:	41                   	inc    %ecx
 17a:	72 67                	jb     1e3 <KERNEL_STACK_SIZE-0xe1d>
 17c:	75 6d                	jne    1eb <KERNEL_STACK_SIZE-0xe15>
 17e:	65 6e                	outsb  %gs:(%esi),(%dx)
 180:	74 54                	je     1d6 <KERNEL_STACK_SIZE-0xe2a>
 182:	79 70                	jns    1f4 <KERNEL_STACK_SIZE-0xe0c>
 184:	65 00 74 61 67       	add    %dh,%gs:0x67(%ecx,%eiz,2)
 189:	5f                   	pop    %edi
 18a:	74 79                	je     205 <KERNEL_STACK_SIZE-0xdfb>
 18c:	70 65                	jo     1f3 <KERNEL_STACK_SIZE-0xe0d>
 18e:	00 75 33             	add    %dh,0x33(%ebp)
 191:	32 00                	xor    (%eax),%al
 193:	63 6c 61 6e          	arpl   %bp,0x6e(%ecx,%eiz,2)
 197:	67 20 4c 4c          	and    %cl,0x4c(%si)
 19b:	56                   	push   %esi
 19c:	4d                   	dec    %ebp
 19d:	20 28                	and    %ch,(%eax)
 19f:	72 75                	jb     216 <KERNEL_STACK_SIZE-0xdea>
 1a1:	73 74                	jae    217 <KERNEL_STACK_SIZE-0xde9>
 1a3:	63 20                	arpl   %sp,(%eax)
 1a5:	76 65                	jbe    20c <KERNEL_STACK_SIZE-0xdf4>
 1a7:	72 73                	jb     21c <KERNEL_STACK_SIZE-0xde4>
 1a9:	69 6f 6e 20 31 2e 38 	imul   $0x382e3120,0x6e(%edi),%ebp
 1b0:	31 2e                	xor    %ebp,(%esi)
 1b2:	30 2d 6e 69 67 68    	xor    %ch,0x6867696e
 1b8:	74 6c                	je     226 <KERNEL_STACK_SIZE-0xdda>
 1ba:	79 20                	jns    1dc <KERNEL_STACK_SIZE-0xe24>
 1bc:	28 36                	sub    %dh,(%esi)
 1be:	38 34 62             	cmp    %dh,(%edx,%eiz,2)
 1c1:	33 35 35 33 66 20    	xor    0x20663335,%esi
 1c7:	32 30                	xor    (%eax),%dh
 1c9:	32 34 2d 30 36 2d 32 	xor    0x322d3630(,%ebp,1),%dh
 1d0:	30 29                	xor    %ch,(%ecx)
 1d2:	29 00                	sub    %eax,(%eax)
 1d4:	70 6f                	jo     245 <KERNEL_STACK_SIZE-0xdbb>
 1d6:	69 6e 74 65 72 00 62 	imul   $0x62007265,0x74(%esi),%ebp
 1dd:	6f                   	outsl  %ds:(%esi),(%dx)
 1de:	6f                   	outsl  %ds:(%esi),(%dx)
 1df:	74 00                	je     1e1 <KERNEL_STACK_SIZE-0xe1f>
 1e1:	68 65 61 64 65       	push   $0x65646165
 1e6:	72 5f                	jb     247 <KERNEL_STACK_SIZE-0xdb9>
 1e8:	6c                   	insb   (%dx),%es:(%edi)
 1e9:	65 6e                	outsb  %gs:(%esi),(%dx)
 1eb:	67 74 68             	addr16 je 256 <KERNEL_STACK_SIZE-0xdaa>
 1ee:	00 4f 70             	add    %cl,0x70(%edi)
 1f1:	74 69                	je     25c <KERNEL_STACK_SIZE-0xda4>
 1f3:	6f                   	outsl  %ds:(%esi),(%dx)
 1f4:	6e                   	outsb  %ds:(%esi),(%dx)
 1f5:	3c 75                	cmp    $0x75,%al
 1f7:	73 69                	jae    262 <KERNEL_STACK_SIZE-0xd9e>
 1f9:	7a 65                	jp     260 <KERNEL_STACK_SIZE-0xda0>
 1fb:	3e 00 2f             	add    %ch,%ds:(%edi)
 1fe:	72 65                	jb     265 <KERNEL_STACK_SIZE-0xd9b>
 200:	65 6e                	outsb  %gs:(%esi),(%dx)
 202:	69 78 00 72 75 73 74 	imul   $0x74737572,0x0(%eax),%edi
 209:	5f                   	pop    %edi
 20a:	62 65 67             	bound  %esp,0x67(%ebp)
 20d:	69 6e 5f 75 6e 77 69 	imul   $0x69776e75,0x5f(%esi),%ebp
 214:	6e                   	outsb  %ds:(%esi),(%dx)
 215:	64 00 28             	add    %ch,%fs:(%eax)
 218:	29 00                	sub    %eax,(%eax)
 21a:	6c                   	insb   (%dx),%es:(%edi)
 21b:	6f                   	outsl  %ds:(%esi),(%dx)
 21c:	63 61 74             	arpl   %sp,0x74(%ecx)
 21f:	69 6f 6e 00 70 61 6e 	imul   $0x6e617000,0x6e(%edi),%ebp
 226:	69 63 5f 69 6e 66 6f 	imul   $0x6f666e69,0x5f(%ebx),%esp
 22d:	00 53 6f             	add    %dl,0x6f(%ebx)
 230:	6d                   	insl   (%dx),%es:(%edi)
 231:	65 00 26             	add    %ah,%gs:(%esi)
 234:	5b                   	pop    %ebx
 235:	75 73                	jne    2aa <KERNEL_STACK_SIZE-0xd56>
 237:	69 7a 65 3b 20 36 5d 	imul   $0x5d36203b,0x65(%edx),%edi
 23e:	00 63 68             	add    %ah,0x68(%ebx)
 241:	65 63 6b 73          	arpl   %bp,%gs:0x73(%ebx)
 245:	75 6d                	jne    2b4 <KERNEL_STACK_SIZE-0xd4c>
 247:	00 49 6d             	add    %cl,0x6d(%ecx)
 24a:	70 6c                	jo     2b8 <KERNEL_STACK_SIZE-0xd48>
 24c:	69 65 64 00 50 6c 61 	imul   $0x616c5000,0x64(%ebp),%esp
 253:	63 65 68             	arpl   %sp,0x68(%ebp)
 256:	6f                   	outsl  %ds:(%esi),(%dx)
 257:	6c                   	insb   (%dx),%es:(%edi)
 258:	64 65 72 00          	fs gs jb 25c <KERNEL_STACK_SIZE-0xda4>
 25c:	72 74                	jb     2d2 <KERNEL_STACK_SIZE-0xd2e>
 25e:	00 75 73             	add    %dh,0x73(%ebp)
 261:	69 7a 65 00 26 5b 63 	imul   $0x635b2600,0x65(%edx),%edi
 268:	6f                   	outsl  %ds:(%esi),(%dx)
 269:	72 65                	jb     2d0 <KERNEL_STACK_SIZE-0xd30>
 26b:	3a 3a                	cmp    (%edx),%bh
 26d:	66 6d                	insw   (%dx),%es:(%edi)
 26f:	74 3a                	je     2ab <KERNEL_STACK_SIZE-0xd55>
 271:	3a 72 74             	cmp    0x74(%edx),%dh
 274:	3a 3a                	cmp    (%edx),%bh
 276:	50                   	push   %eax
 277:	6c                   	insb   (%dx),%es:(%edi)
 278:	61                   	popa   
 279:	63 65 68             	arpl   %sp,0x68(%ebp)
 27c:	6f                   	outsl  %ds:(%esi),(%dx)
 27d:	6c                   	insb   (%dx),%es:(%edi)
 27e:	64 65 72 5d          	fs gs jb 2df <KERNEL_STACK_SIZE-0xd21>
 282:	00 45 00             	add    %al,0x0(%ebp)
 285:	76 74                	jbe    2fb <KERNEL_STACK_SIZE-0xd05>
 287:	61                   	popa   
 288:	62 6c 65 00          	bound  %ebp,0x0(%ebp,%eiz,2)
 28c:	73 72                	jae    300 <KERNEL_STACK_SIZE-0xd00>
 28e:	63 2f                	arpl   %bp,(%edi)
 290:	6d                   	insl   (%dx),%es:(%edi)
 291:	61                   	popa   
 292:	69 6e 2e 72 73 2f 40 	imul   $0x402f7372,0x2e(%esi),%ebp
 299:	2f                   	das    
 29a:	37                   	aaa    
 29b:	79 34                	jns    2d1 <KERNEL_STACK_SIZE-0xd2f>
 29d:	35 6c 30 71 6c       	xor    $0x6c71306c,%eax
 2a2:	30 30                	xor    %dh,(%eax)
 2a4:	6c                   	insb   (%dx),%es:(%edi)
 2a5:	67 35 32 6f 72 32    	addr16 xor $0x32726f32,%eax
 2ab:	32 64 62 31          	xor    0x31(%edx,%eiz,2),%ah
 2af:	6f                   	outsl  %ds:(%esi),(%dx)
 2b0:	6b 66 63 00          	imul   $0x0,0x63(%esi),%esp
 2b4:	63 68 61             	arpl   %bp,0x61(%eax)
 2b7:	72 00                	jb     2b9 <KERNEL_STACK_SIZE-0xd47>
 2b9:	5f                   	pop    %edi
 2ba:	5f                   	pop    %edi
 2bb:	30 00                	xor    %al,(%eax)
 2bd:	26 63 6f 72          	arpl   %bp,%es:0x72(%edi)
 2c1:	65 3a 3a             	cmp    %gs:(%edx),%bh
 2c4:	66 6d                	insw   (%dx),%es:(%edi)
 2c6:	74 3a                	je     302 <KERNEL_STACK_SIZE-0xcfe>
 2c8:	3a 72 74             	cmp    0x74(%edx),%dh
 2cb:	3a 3a                	cmp    (%edx),%bh
 2cd:	7b 65                	jnp    334 <KERNEL_STACK_SIZE-0xccc>
 2cf:	78 74                	js     345 <KERNEL_STACK_SIZE-0xcbb>
 2d1:	65 72 6e             	gs jb  342 <KERNEL_STACK_SIZE-0xcbe>
 2d4:	23 30                	and    (%eax),%esi
 2d6:	7d 3a                	jge    312 <KERNEL_STACK_SIZE-0xcee>
 2d8:	3a 4f 70             	cmp    0x70(%edi),%cl
 2db:	61                   	popa   
 2dc:	71 75                	jno    353 <KERNEL_STACK_SIZE-0xcad>
 2de:	65 00 4d 75          	add    %cl,%gs:0x75(%ebp)
 2e2:	6c                   	insb   (%dx),%es:(%edi)
 2e3:	74 69                	je     34e <KERNEL_STACK_SIZE-0xcb2>
 2e5:	62 6f 6f             	bound  %ebp,0x6f(%edi)
 2e8:	74 32                	je     31c <KERNEL_STACK_SIZE-0xce4>
 2ea:	48                   	dec    %eax
 2eb:	65 61                	gs popa 
 2ed:	64 65 72 00          	fs gs jb 2f1 <KERNEL_STACK_SIZE-0xd0f>
 2f1:	6d                   	insl   (%dx),%es:(%edi)
 2f2:	65 73 73             	gs jae 368 <KERNEL_STACK_SIZE-0xc98>
 2f5:	61                   	popa   
 2f6:	67 65 00 6f 70       	add    %ch,%gs:0x70(%bx)
 2fb:	74 69                	je     366 <KERNEL_STACK_SIZE-0xc9a>
 2fd:	6f                   	outsl  %ds:(%esi),(%dx)
 2fe:	6e                   	outsb  %ds:(%esi),(%dx)
 2ff:	00 43 6f             	add    %al,0x6f(%ebx)
 302:	75 6e                	jne    372 <KERNEL_STACK_SIZE-0xc8e>
 304:	74 00                	je     306 <KERNEL_STACK_SIZE-0xcfa>
 306:	74 79                	je     381 <KERNEL_STACK_SIZE-0xc7f>
 308:	00 64 79 6e          	add    %ah,0x6e(%ecx,%edi,2)
 30c:	20 63 6f             	and    %ah,0x6f(%ebx)
 30f:	72 65                	jb     376 <KERNEL_STACK_SIZE-0xc8a>
 311:	3a 3a                	cmp    (%edx),%bh
 313:	66 6d                	insw   (%dx),%es:(%edi)
 315:	74 3a                	je     351 <KERNEL_STACK_SIZE-0xcaf>
 317:	3a 57 72             	cmp    0x72(%edi),%dl
 31a:	69 74 65 00 73 72 63 	imul   $0x2f637273,0x0(%ebp,%eiz,2),%esi
 321:	2f 
 322:	6d                   	insl   (%dx),%es:(%edi)
 323:	61                   	popa   
 324:	69 6e 2e 72 73 2f 40 	imul   $0x402f7372,0x2e(%esi),%ebp
 32b:	2f                   	das    
 32c:	65 30 62 36          	xor    %ah,%gs:0x36(%edx)
 330:	31 37                	xor    %esi,(%edi)
 332:	70 36                	jo     36a <KERNEL_STACK_SIZE-0xc96>
 334:	70 6f                	jo     3a5 <KERNEL_STACK_SIZE-0xc5b>
 336:	66 31 75 61          	xor    %si,0x61(%ebp)
 33a:	67 34 6f             	addr16 xor $0x6f,%al
 33d:	34 6c                	xor    $0x6c,%al
 33f:	79 6b                	jns    3ac <KERNEL_STACK_SIZE-0xc54>
 341:	75 6b                	jne    3ae <KERNEL_STACK_SIZE-0xc52>
 343:	30 78 00             	xor    %bh,0x0(%eax)
 346:	70 61                	jo     3a9 <KERNEL_STACK_SIZE-0xc57>
 348:	6e                   	outsb  %ds:(%esi),(%dx)
 349:	69 63 00 76 61 6c 75 	imul   $0x756c6176,0x0(%ebx),%esp
 350:	65 00 72 65          	add    %dh,%gs:0x65(%edx)
 354:	65 6e                	outsb  %gs:(%esi),(%dx)
 356:	69 78 00 6c 65 6e 67 	imul   $0x676e656c,0x0(%eax),%edi
 35d:	74 68                	je     3c7 <KERNEL_STACK_SIZE-0xc39>
 35f:	00 49 73             	add    %cl,0x73(%ecx)
 362:	00 77 69             	add    %dh,0x69(%edi)
 365:	64 74 68             	fs je  3d0 <KERNEL_STACK_SIZE-0xc30>
 368:	00 70 61             	add    %dh,0x61(%eax)
 36b:	6e                   	outsb  %ds:(%esi),(%dx)
 36c:	69 63 5f 68 61 6e 64 	imul   $0x646e6168,0x5f(%ebx),%esp
 373:	6c                   	insb   (%dx),%es:(%edi)
 374:	65 72 00             	gs jb  377 <KERNEL_STACK_SIZE-0xc89>
 377:	4e                   	dec    %esi
 378:	6f                   	outsl  %ds:(%esi),(%dx)
 379:	6e                   	outsb  %ds:(%esi),(%dx)
 37a:	65 00 45 72          	add    %al,%gs:0x72(%ebp)
 37e:	72 00                	jb     380 <KERNEL_STACK_SIZE-0xc80>
 380:	6c                   	insb   (%dx),%es:(%edi)
 381:	69 6e 65 00 61 72 63 	imul   $0x63726100,0x65(%esi),%ebp
 388:	68 69 74 65 63       	push   $0x63657469
 38d:	74 75                	je     404 <KERNEL_STACK_SIZE-0xbfc>
 38f:	72 65                	jb     3f6 <KERNEL_STACK_SIZE-0xc0a>
 391:	00 75 36             	add    %dh,0x36(%ebp)
 394:	34 00                	xor    $0x0,%al
 396:	70 6f                	jo     407 <KERNEL_STACK_SIZE-0xbf9>
 398:	73 69                	jae    403 <KERNEL_STACK_SIZE-0xbfd>
 39a:	74 69                	je     405 <KERNEL_STACK_SIZE-0xbfb>
 39c:	6f                   	outsl  %ds:(%esi),(%dx)
 39d:	6e                   	outsb  %ds:(%esi),(%dx)
 39e:	00 45 72             	add    %al,0x72(%ebp)
 3a1:	72 6f                	jb     412 <KERNEL_STACK_SIZE-0xbee>
 3a3:	72 00                	jb     3a5 <KERNEL_STACK_SIZE-0xc5b>
 3a5:	26 5b                	es pop %ebx
 3a7:	63 6f 72             	arpl   %bp,0x72(%edi)
 3aa:	65 3a 3a             	cmp    %gs:(%edx),%bh
 3ad:	66 6d                	insw   (%dx),%es:(%edi)
 3af:	74 3a                	je     3eb <KERNEL_STACK_SIZE-0xc15>
 3b1:	3a 72 74             	cmp    0x74(%edx),%dh
 3b4:	3a 3a                	cmp    (%edx),%bh
 3b6:	41                   	inc    %ecx
 3b7:	72 67                	jb     420 <KERNEL_STACK_SIZE-0xbe0>
 3b9:	75 6d                	jne    428 <KERNEL_STACK_SIZE-0xbd8>
 3bb:	65 6e                	outsb  %gs:(%esi),(%dx)
 3bd:	74 5d                	je     41c <KERNEL_STACK_SIZE-0xbe4>
 3bf:	00 75 31             	add    %dh,0x31(%ebp)
 3c2:	36 00 52 65          	add    %dl,%ss:0x65(%edx)
 3c6:	73 75                	jae    43d <KERNEL_STACK_SIZE-0xbc3>
 3c8:	6c                   	insb   (%dx),%es:(%edi)
 3c9:	74 3c                	je     407 <KERNEL_STACK_SIZE-0xbf9>
 3cb:	28 29                	sub    %ch,(%ecx)
 3cd:	2c 20                	sub    $0x20,%al
 3cf:	63 6f 72             	arpl   %bp,0x72(%edi)
 3d2:	65 3a 3a             	cmp    %gs:(%edx),%bh
 3d5:	66 6d                	insw   (%dx),%es:(%edi)
 3d7:	74 3a                	je     413 <KERNEL_STACK_SIZE-0xbed>
 3d9:	3a 45 72             	cmp    0x72(%ebp),%al
 3dc:	72 6f                	jb     44d <KERNEL_STACK_SIZE-0xbb3>
 3de:	72 3e                	jb     41e <KERNEL_STACK_SIZE-0xbe2>
 3e0:	00 5f 5f             	add    %bl,0x5f(%edi)
 3e3:	41                   	inc    %ecx
 3e4:	52                   	push   %edx
 3e5:	52                   	push   %edx
 3e6:	41                   	inc    %ecx
 3e7:	59                   	pop    %ecx
 3e8:	5f                   	pop    %edi
 3e9:	53                   	push   %ebx
 3ea:	49                   	dec    %ecx
 3eb:	5a                   	pop    %edx
 3ec:	45                   	inc    %ebp
 3ed:	5f                   	pop    %edi
 3ee:	54                   	push   %esp
 3ef:	59                   	pop    %ecx
 3f0:	50                   	push   %eax
 3f1:	45                   	inc    %ebp
 3f2:	5f                   	pop    %edi
 3f3:	5f                   	pop    %edi
 3f4:	00 63 6f             	add    %ah,0x6f(%ebx)
 3f7:	6c                   	insb   (%dx),%es:(%edi)
 3f8:	00 66 6c             	add    %ah,0x6c(%esi)
 3fb:	61                   	popa   
 3fc:	67 73 00             	addr16 jae 3ff <KERNEL_STACK_SIZE-0xc01>
 3ff:	66 6f                	outsw  %ds:(%esi),(%dx)
 401:	72 63                	jb     466 <KERNEL_STACK_SIZE-0xb9a>
 403:	65 5f                	gs pop %edi
 405:	6e                   	outsb  %ds:(%esi),(%dx)
 406:	6f                   	outsl  %ds:(%esi),(%dx)
 407:	5f                   	pop    %edi
 408:	62 61 63             	bound  %esp,0x63(%ecx)
 40b:	6b 74 72 61 63       	imul   $0x63,0x61(%edx,%esi,2),%esi
 410:	65 00 50 61          	add    %dl,%gs:0x61(%eax)
 414:	6e                   	outsb  %ds:(%esi),(%dx)
 415:	69 63 49 6e 66 6f 00 	imul   $0x6f666e,0x49(%ebx),%esp
 41c:	4c                   	dec    %esp
 41d:	65 66 74 00          	gs data16 je 421 <KERNEL_STACK_SIZE-0xbdf>
 421:	4f                   	dec    %edi
 422:	6b 00 41             	imul   $0x41,(%eax),%eax
 425:	72 67                	jb     48e <KERNEL_STACK_SIZE-0xb72>
 427:	75 6d                	jne    496 <KERNEL_STACK_SIZE-0xb6a>
 429:	65 6e                	outsb  %gs:(%esi),(%dx)
 42b:	74 00                	je     42d <KERNEL_STACK_SIZE-0xbd3>
 42d:	63 61 6e             	arpl   %sp,0x6e(%ecx)
 430:	5f                   	pop    %edi
 431:	75 6e                	jne    4a1 <KERNEL_STACK_SIZE-0xb5f>
 433:	77 69                	ja     49e <KERNEL_STACK_SIZE-0xb62>
 435:	6e                   	outsb  %ds:(%esi),(%dx)
 436:	64 00 66 6d          	add    %ah,%fs:0x6d(%esi)
 43a:	74 00                	je     43c <KERNEL_STACK_SIZE-0xbc4>
 43c:	52                   	push   %edx
 43d:	69 67 68 74 00 70 69 	imul   $0x69700074,0x68(%edi),%esp
 444:	65 63 65 73          	arpl   %sp,%gs:0x73(%ebp)
 448:	00 41 72             	add    %al,0x72(%ecx)
 44b:	67 75 6d             	addr16 jne 4bb <KERNEL_STACK_SIZE-0xb45>
 44e:	65 6e                	outsb  %gs:(%esi),(%dx)
 450:	74 73                	je     4c5 <KERNEL_STACK_SIZE-0xb3b>
 452:	00 4d 55             	add    %cl,0x55(%ebp)
 455:	4c                   	dec    %esp
 456:	54                   	push   %esp
 457:	49                   	dec    %ecx
 458:	42                   	inc    %edx
 459:	4f                   	dec    %edi
 45a:	4f                   	dec    %edi
 45b:	54                   	push   %esp
 45c:	32 5f 48             	xor    0x48(%edi),%bl
 45f:	45                   	inc    %ebp
 460:	41                   	inc    %ecx
 461:	44                   	inc    %esp
 462:	45                   	inc    %ebp
 463:	52                   	push   %edx
 464:	00 65 6e             	add    %ah,0x6e(%ebp)
 467:	64 5f                	fs pop %edi
 469:	74 61                	je     4cc <KERNEL_STACK_SIZE-0xb34>
 46b:	67 00 61 6c          	add    %ah,0x6c(%bx,%di)
 46f:	69 67 6e 00 66 69 6c 	imul   $0x6c696600,0x6e(%edi),%esp
 476:	65 00 73 69          	add    %dh,%gs:0x69(%ebx)
 47a:	7a 65                	jp     4e1 <KERNEL_STACK_SIZE-0xb1f>
 47c:	00 55 6e             	add    %dl,0x6e(%ebp)
 47f:	6b 6e 6f 77          	imul   $0x77,0x6f(%esi),%ebp
 483:	6e                   	outsb  %ds:(%esi),(%dx)
 484:	00 66 69             	add    %ah,0x69(%esi)
 487:	6c                   	insb   (%dx),%es:(%edi)
 488:	6c                   	insb   (%dx),%es:(%edi)
 489:	00 26                	add    %ah,(%esi)
 48b:	6d                   	insl   (%dx),%es:(%edi)
 48c:	75 74                	jne    502 <KERNEL_STACK_SIZE-0xafe>
 48e:	20 63 6f             	and    %ah,0x6f(%ebx)
 491:	72 65                	jb     4f8 <KERNEL_STACK_SIZE-0xb08>
 493:	3a 3a                	cmp    (%edx),%bh
 495:	66 6d                	insw   (%dx),%es:(%edi)
 497:	74 3a                	je     4d3 <KERNEL_STACK_SIZE-0xb2d>
 499:	3a 46 6f             	cmp    0x6f(%esi),%al
 49c:	72 6d                	jb     50b <KERNEL_STACK_SIZE-0xaf5>
 49e:	61                   	popa   
 49f:	74 74                	je     515 <KERNEL_STACK_SIZE-0xaeb>
 4a1:	65 72 00             	gs jb  4a4 <KERNEL_STACK_SIZE-0xb5c>
 4a4:	26 5b                	es pop %ebx
 4a6:	26 73 74             	es jae 51d <KERNEL_STACK_SIZE-0xae3>
 4a9:	72 5d                	jb     508 <KERNEL_STACK_SIZE-0xaf8>
 4ab:	00 70 72             	add    %dh,0x72(%eax)
 4ae:	65 63 69 73          	arpl   %bp,%gs:0x73(%ecx)
 4b2:	69 6f 6e 00 50 61 72 	imul   $0x72615000,0x6e(%edi),%ebp
 4b9:	61                   	popa   
 4ba:	6d                   	insl   (%dx),%es:(%edi)
 4bb:	00 7b 65             	add    %bh,0x65(%ebx)
 4be:	78 74                	js     534 <KERNEL_STACK_SIZE-0xacc>
 4c0:	65 72 6e             	gs jb  531 <KERNEL_STACK_SIZE-0xacf>
 4c3:	23 30                	and    (%eax),%esi
 4c5:	7d 00                	jge    4c7 <KERNEL_STACK_SIZE-0xb39>

Disassembly of section .comment:

0000000000000000 <.comment>:
   0:	4c                   	dec    %esp
   1:	69 6e 6b 65 72 3a 20 	imul   $0x203a7265,0x6b(%esi),%ebp
   8:	4c                   	dec    %esp
   9:	4c                   	dec    %esp
   a:	44                   	inc    %esp
   b:	20 31                	and    %dh,(%ecx)
   d:	38 2e                	cmp    %ch,(%esi)
   f:	31 2e                	xor    %ebp,(%esi)
  11:	37                   	aaa    
  12:	00 00                	add    %al,(%eax)
  14:	72 75                	jb     8b <KERNEL_STACK_SIZE-0xf75>
  16:	73 74                	jae    8c <KERNEL_STACK_SIZE-0xf74>
  18:	63 20                	arpl   %sp,(%eax)
  1a:	76 65                	jbe    81 <KERNEL_STACK_SIZE-0xf7f>
  1c:	72 73                	jb     91 <KERNEL_STACK_SIZE-0xf6f>
  1e:	69 6f 6e 20 31 2e 38 	imul   $0x382e3120,0x6e(%edi),%ebp
  25:	31 2e                	xor    %ebp,(%esi)
  27:	30 2d 6e 69 67 68    	xor    %ch,0x6867696e
  2d:	74 6c                	je     9b <KERNEL_STACK_SIZE-0xf65>
  2f:	79 20                	jns    51 <KERNEL_STACK_SIZE-0xfaf>
  31:	28 36                	sub    %dh,(%esi)
  33:	38 34 62             	cmp    %dh,(%edx,%eiz,2)
  36:	33 35 35 33 66 20    	xor    0x20663335,%esi
  3c:	32 30                	xor    (%eax),%dh
  3e:	32 34 2d 30 36 2d 32 	xor    0x322d3630(,%ebp,1),%dh
  45:	30 29                	xor    %ch,(%ecx)
	...

Disassembly of section .debug_frame:

0000000000000000 <.debug_frame>:
   0:	14 00                	adc    $0x0,%al
   2:	00 00                	add    %al,(%eax)
   4:	ff                   	(bad)  
   5:	ff                   	(bad)  
   6:	ff                   	(bad)  
   7:	ff 04 00             	incl   (%eax,%eax,1)
   a:	08 00                	or     %al,(%eax)
   c:	01 78 10             	add    %edi,0x10(%eax)
   f:	0c 07                	or     $0x7,%al
  11:	08 90 01 00 00 00    	or     %dl,0x1(%eax)
  17:	00 14 00             	add    %dl,(%eax,%eax,1)
	...
  26:	00 00                	add    %al,(%eax)
  28:	01 00                	add    %eax,(%eax)
  2a:	00 00                	add    %al,(%eax)
  2c:	00 00                	add    %al,(%eax)
  2e:	00 00                	add    %al,(%eax)
  30:	1c 00                	sbb    $0x0,%al
	...
  3e:	00 00                	add    %al,(%eax)
  40:	1d 00 00 00 00       	sbb    $0x0,%eax
  45:	00 00                	add    %al,(%eax)
  47:	00 41 0e             	add    %al,0xe(%ecx)
  4a:	10 00                	adc    %al,(%eax)
  4c:	00 00                	add    %al,(%eax)
	...

Disassembly of section .debug_line:

0000000000000000 <.debug_line>:
   0:	5a                   	pop    %edx
   1:	00 00                	add    %al,(%eax)
   3:	00 04 00             	add    %al,(%eax,%eax,1)
   6:	23 00                	and    (%eax),%eax
   8:	00 00                	add    %al,(%eax)
   a:	01 01                	add    %eax,(%ecx)
   c:	01 fb                	add    %edi,%ebx
   e:	0e                   	push   %cs
   f:	0d 00 01 01 01       	or     $0x1010100,%eax
  14:	01 00                	add    %eax,(%eax)
  16:	00 00                	add    %al,(%eax)
  18:	01 00                	add    %eax,(%eax)
  1a:	00 01                	add    %al,(%ecx)
  1c:	73 72                	jae    90 <KERNEL_STACK_SIZE-0xf70>
  1e:	63 00                	arpl   %ax,(%eax)
  20:	00 6d 61             	add    %ch,0x61(%ebp)
  23:	69 6e 2e 72 73 00 01 	imul   $0x1007372,0x2e(%esi),%ebp
  2a:	00 00                	add    %al,(%eax)
  2c:	00 05 1d 0a 00 09    	add    %al,0x9000a1d
  32:	02 00                	add    (%eax),%al
  34:	00 00                	add    %al,(%eax)
  36:	00 00                	add    %al,(%eax)
  38:	00 00                	add    %al,(%eax)
  3a:	00 03                	add    %al,(%ebx)
  3c:	0f 01 02             	sgdtl  (%edx)
  3f:	01 00                	add    %eax,(%eax)
  41:	01 01                	add    %eax,(%ecx)
  43:	00 09                	add    %cl,(%ecx)
  45:	02 00                	add    (%eax),%al
  47:	00 00                	add    %al,(%eax)
  49:	00 00                	add    %al,(%eax)
  4b:	00 00                	add    %al,(%eax)
  4d:	00 03                	add    %al,(%ebx)
  4f:	12 01                	adc    (%ecx),%al
  51:	05 09 0a 5a 05       	add    $0x55a0a09,%eax
  56:	05 08 5e 02 02       	add    $0x2025e08,%eax
  5b:	00 01                	add    %al,(%ecx)
  5d:	01 2d 00 00 00 04    	add    %ebp,0x4000000
  63:	00 27                	add    %ah,(%edi)
  65:	00 00                	add    %al,(%eax)
  67:	00 01                	add    %al,(%ecx)
  69:	01 01                	add    %eax,(%ecx)
  6b:	fb                   	sti    
  6c:	0e                   	push   %cs
  6d:	0d 00 01 01 01       	or     $0x1010100,%eax
  72:	01 00                	add    %eax,(%eax)
  74:	00 00                	add    %al,(%eax)
  76:	01 00                	add    %eax,(%eax)
  78:	00 01                	add    %al,(%ecx)
  7a:	73 72                	jae    ee <KERNEL_STACK_SIZE-0xf12>
  7c:	63 2f                	arpl   %bp,(%edi)
  7e:	62 6f 6f             	bound  %ebp,0x6f(%edi)
  81:	74 00                	je     83 <KERNEL_STACK_SIZE-0xf7d>
  83:	00 6d 6f             	add    %ch,0x6f(%ebp)
  86:	64 2e 72 73          	fs jb,pn fd <KERNEL_STACK_SIZE-0xf03>
  8a:	00 01                	add    %al,(%ecx)
  8c:	00 00                	add    %al,(%eax)
	...
